
kernel/kernel：     文件格式 elf64-littleriscv


Disassembly of section .text:

0000000080000000 <_entry>:
    80000000:	0000c117          	auipc	sp,0xc
    80000004:	e9013103          	ld	sp,-368(sp) # 8000be90 <_GLOBAL_OFFSET_TABLE_+0x8>
    80000008:	6505                	lui	a0,0x1
    8000000a:	f14025f3          	csrr	a1,mhartid
    8000000e:	0585                	addi	a1,a1,1
    80000010:	02b50533          	mul	a0,a0,a1
    80000014:	912a                	add	sp,sp,a0
    80000016:	459050ef          	jal	80005c6e <start>

000000008000001a <spin>:
    8000001a:	a001                	j	8000001a <spin>

000000008000001c <freerange>:

// Add physical memory from pa_start to pa_end (exclusive of pa_end)
// to the 4KB page free list. pa_start and pa_end are page-aligned.
void
freerange(void *pa_start, void *pa_end)
{
    8000001c:	7139                	addi	sp,sp,-64
    8000001e:	fc06                	sd	ra,56(sp)
    80000020:	f822                	sd	s0,48(sp)
    80000022:	f426                	sd	s1,40(sp)
    80000024:	0080                	addi	s0,sp,64
  char *p;
  p = (char*)PGROUNDUP((uint64)pa_start); // Align pa_start up to a page boundary
    80000026:	6785                	lui	a5,0x1
    80000028:	fff78713          	addi	a4,a5,-1 # fff <_entry-0x7ffff001>
    8000002c:	00e504b3          	add	s1,a0,a4
    80000030:	777d                	lui	a4,0xfffff
    80000032:	8cf9                	and	s1,s1,a4
  // Distribute initial pages somewhat evenly, or all to CPU 0.
  // For simplicity in xv6 init, often all given to CPU 0, and others steal.
  int bootstrap_cpu_id = 0; // Or r_mhartid() if kinit is called by each hart, but typically just once.
                            // If kinit is called once globally, bootstrap_cpu_id = 0 is fine.

  for(; p + PGSIZE <= (char*)pa_end; p += PGSIZE) {
    80000034:	94be                	add	s1,s1,a5
    80000036:	0495e463          	bltu	a1,s1,8000007e <freerange+0x62>
    8000003a:	f04a                	sd	s2,32(sp)
    8000003c:	ec4e                	sd	s3,24(sp)
    8000003e:	e852                	sd	s4,16(sp)
    80000040:	e456                	sd	s5,8(sp)
    80000042:	e05a                	sd	s6,0(sp)
    80000044:	8a2e                	mv	s4,a1
    80000046:	7b7d                	lui	s6,0xfffff
    // because pa_end for this freerange call is already adjusted
    // to not include the superpage pool.
    struct run *r = (struct run*)p;

    // Add page to the bootstrap CPU's freelist
    acquire(&kmems[bootstrap_cpu_id].lock);
    80000048:	0000c917          	auipc	s2,0xc
    8000004c:	eb890913          	addi	s2,s2,-328 # 8000bf00 <kmems>
  for(; p + PGSIZE <= (char*)pa_end; p += PGSIZE) {
    80000050:	6a85                	lui	s5,0x1
    80000052:	016489b3          	add	s3,s1,s6
    acquire(&kmems[bootstrap_cpu_id].lock);
    80000056:	854a                	mv	a0,s2
    80000058:	69e060ef          	jal	800066f6 <acquire>
    r->next = kmems[bootstrap_cpu_id].freelist;
    8000005c:	02093783          	ld	a5,32(s2)
    80000060:	00f9b023          	sd	a5,0(s3)
    kmems[bootstrap_cpu_id].freelist = r;
    80000064:	03393023          	sd	s3,32(s2)
    release(&kmems[bootstrap_cpu_id].lock);
    80000068:	854a                	mv	a0,s2
    8000006a:	758060ef          	jal	800067c2 <release>
  for(; p + PGSIZE <= (char*)pa_end; p += PGSIZE) {
    8000006e:	94d6                	add	s1,s1,s5
    80000070:	fe9a71e3          	bgeu	s4,s1,80000052 <freerange+0x36>
    80000074:	7902                	ld	s2,32(sp)
    80000076:	69e2                	ld	s3,24(sp)
    80000078:	6a42                	ld	s4,16(sp)
    8000007a:	6aa2                	ld	s5,8(sp)
    8000007c:	6b02                	ld	s6,0(sp)
  }
}
    8000007e:	70e2                	ld	ra,56(sp)
    80000080:	7442                	ld	s0,48(sp)
    80000082:	74a2                	ld	s1,40(sp)
    80000084:	6121                	addi	sp,sp,64
    80000086:	8082                	ret

0000000080000088 <kinit>:
{
    80000088:	715d                	addi	sp,sp,-80
    8000008a:	e486                	sd	ra,72(sp)
    8000008c:	e0a2                	sd	s0,64(sp)
    8000008e:	fc26                	sd	s1,56(sp)
    80000090:	f84a                	sd	s2,48(sp)
    80000092:	f44e                	sd	s3,40(sp)
    80000094:	f052                	sd	s4,32(sp)
    80000096:	ec56                	sd	s5,24(sp)
    80000098:	e85a                	sd	s6,16(sp)
    8000009a:	e45e                	sd	s7,8(sp)
    8000009c:	0880                	addi	s0,sp,80
  for (int i = 0; i < NCPU; i++) {
    8000009e:	0000c497          	auipc	s1,0xc
    800000a2:	e6248493          	addi	s1,s1,-414 # 8000bf00 <kmems>
{
    800000a6:	03000913          	li	s2,48
    kmems[i].name[0] = 'k'; kmems[i].name[1] = 'm'; kmems[i].name[2] = 'e'; kmems[i].name[3] = 'm';
    800000aa:	06b00b93          	li	s7,107
    800000ae:	06d00993          	li	s3,109
    800000b2:	06500b13          	li	s6,101
    kmems[i].name[4] = '_';
    800000b6:	05f00a93          	li	s5,95
  for (int i = 0; i < NCPU; i++) {
    800000ba:	03800a13          	li	s4,56
    kmems[i].name[0] = 'k'; kmems[i].name[1] = 'm'; kmems[i].name[2] = 'e'; kmems[i].name[3] = 'm';
    800000be:	03748423          	sb	s7,40(s1)
    800000c2:	033484a3          	sb	s3,41(s1)
    800000c6:	03648523          	sb	s6,42(s1)
    800000ca:	033485a3          	sb	s3,43(s1)
    kmems[i].name[4] = '_';
    800000ce:	03548623          	sb	s5,44(s1)
        kmems[i].name[5] = (char)('0' + i);
    800000d2:	032486a3          	sb	s2,45(s1)
        kmems[i].name[6] = '\0';
    800000d6:	02048723          	sb	zero,46(s1)
    initlock(&kmems[i].lock, kmems[i].name);
    800000da:	02848593          	addi	a1,s1,40
    800000de:	8526                	mv	a0,s1
    800000e0:	71e060ef          	jal	800067fe <initlock>
    kmems[i].freelist = 0; // Initialize freelist
    800000e4:	0204b023          	sd	zero,32(s1)
  for (int i = 0; i < NCPU; i++) {
    800000e8:	03848493          	addi	s1,s1,56
    800000ec:	2905                	addiw	s2,s2,1
    800000ee:	0ff97913          	zext.b	s2,s2
    800000f2:	fd4916e3          	bne	s2,s4,800000be <kinit+0x36>
  initlock(&superlock, "superkmem");
    800000f6:	00008597          	auipc	a1,0x8
    800000fa:	f0a58593          	addi	a1,a1,-246 # 80008000 <etext>
    800000fe:	0000c517          	auipc	a0,0xc
    80000102:	fc250513          	addi	a0,a0,-62 # 8000c0c0 <superlock>
    80000106:	6f8060ef          	jal	800067fe <initlock>
    superpages_status[i] = 0;
    8000010a:	0000c797          	auipc	a5,0xc
    8000010e:	db678793          	addi	a5,a5,-586 # 8000bec0 <superpages_status>
    80000112:	00078023          	sb	zero,0(a5)
    80000116:	000780a3          	sb	zero,1(a5)
    8000011a:	00078123          	sb	zero,2(a5)
    8000011e:	000781a3          	sb	zero,3(a5)
    80000122:	00078223          	sb	zero,4(a5)
    80000126:	000782a3          	sb	zero,5(a5)
    8000012a:	00078323          	sb	zero,6(a5)
    8000012e:	000783a3          	sb	zero,7(a5)
  if (PHYSTOP < (uint64)end + total_super_pool_size) { // Not enough memory even for kernel + superpages
    80000132:	00026617          	auipc	a2,0x26
    80000136:	dc660613          	addi	a2,a2,-570 # 80025ef8 <end>
    8000013a:	01026717          	auipc	a4,0x1026
    8000013e:	dbe70713          	addi	a4,a4,-578 # 81025ef8 <end+0x1000000>
    80000142:	47c5                	li	a5,17
    80000144:	07ee                	slli	a5,a5,0x1b
    80000146:	02e7e963          	bltu	a5,a4,80000178 <kinit+0xf0>
  } else if (potential_sp_start < (uint64)end) { // Overlaps with kernel
    8000014a:	08700793          	li	a5,135
    8000014e:	07e2                	slli	a5,a5,0x18
    80000150:	02c7fb63          	bgeu	a5,a2,80000186 <kinit+0xfe>
      printf("kalloc: Calculated superpage pool at 0x%lx overlaps kernel (ends at 0x%lx). Superpages disabled.\n",
    80000154:	85be                	mv	a1,a5
    80000156:	00008517          	auipc	a0,0x8
    8000015a:	f1250513          	addi	a0,a0,-238 # 80008068 <etext+0x68>
    8000015e:	773050ef          	jal	800060d0 <printf>
      superpages_physaddr_start = 0;
    80000162:	0000c797          	auipc	a5,0xc
    80000166:	d407bb23          	sd	zero,-682(a5) # 8000beb8 <superpages_physaddr_start>
      superpages_pool_active = 0;
    8000016a:	0000c797          	auipc	a5,0xc
    8000016e:	d407a323          	sw	zero,-698(a5) # 8000beb0 <superpages_pool_active>
    pa_4k_end = PHYSTOP; // No superpages, 4KB pages go up to PHYSTOP
    80000172:	45c5                	li	a1,17
    80000174:	05ee                	slli	a1,a1,0x1b
    80000176:	a0a1                	j	800001be <kinit+0x136>
      printf("kalloc: Not enough physical memory for kernel and superpage pool. Superpages disabled.\n");
    80000178:	00008517          	auipc	a0,0x8
    8000017c:	e9850513          	addi	a0,a0,-360 # 80008010 <etext+0x10>
    80000180:	751050ef          	jal	800060d0 <printf>
      superpages_pool_active = 0;
    80000184:	bff9                	j	80000162 <kinit+0xda>
      superpages_physaddr_start = potential_sp_start;
    80000186:	08700593          	li	a1,135
    8000018a:	05e2                	slli	a1,a1,0x18
    8000018c:	0000c797          	auipc	a5,0xc
    80000190:	d2b7b623          	sd	a1,-724(a5) # 8000beb8 <superpages_physaddr_start>
      superpages_pool_active = 1;
    80000194:	0000c497          	auipc	s1,0xc
    80000198:	d1c48493          	addi	s1,s1,-740 # 8000beb0 <superpages_pool_active>
    8000019c:	4785                	li	a5,1
    8000019e:	c09c                	sw	a5,0(s1)
      printf("kalloc: Superpage pool active: [0x%lx - 0x%lx), %d blocks.\n", 
    800001a0:	46a1                	li	a3,8
    800001a2:	4645                	li	a2,17
    800001a4:	066e                	slli	a2,a2,0x1b
    800001a6:	00008517          	auipc	a0,0x8
    800001aa:	f2a50513          	addi	a0,a0,-214 # 800080d0 <etext+0xd0>
    800001ae:	723050ef          	jal	800060d0 <printf>
  if (superpages_pool_active) {
    800001b2:	409c                	lw	a5,0(s1)
    800001b4:	c795                	beqz	a5,800001e0 <kinit+0x158>
    pa_4k_end = superpages_physaddr_start; // 4KB pages go up to where superpages begin
    800001b6:	0000c597          	auipc	a1,0xc
    800001ba:	d025b583          	ld	a1,-766(a1) # 8000beb8 <superpages_physaddr_start>
  freerange(end, (void*)pa_4k_end);
    800001be:	00026517          	auipc	a0,0x26
    800001c2:	d3a50513          	addi	a0,a0,-710 # 80025ef8 <end>
    800001c6:	e57ff0ef          	jal	8000001c <freerange>
}
    800001ca:	60a6                	ld	ra,72(sp)
    800001cc:	6406                	ld	s0,64(sp)
    800001ce:	74e2                	ld	s1,56(sp)
    800001d0:	7942                	ld	s2,48(sp)
    800001d2:	79a2                	ld	s3,40(sp)
    800001d4:	7a02                	ld	s4,32(sp)
    800001d6:	6ae2                	ld	s5,24(sp)
    800001d8:	6b42                	ld	s6,16(sp)
    800001da:	6ba2                	ld	s7,8(sp)
    800001dc:	6161                	addi	sp,sp,80
    800001de:	8082                	ret
    pa_4k_end = PHYSTOP; // No superpages, 4KB pages go up to PHYSTOP
    800001e0:	45c5                	li	a1,17
    800001e2:	05ee                	slli	a1,a1,0x1b
    800001e4:	bfe9                	j	800001be <kinit+0x136>

00000000800001e6 <kfree>:
// Free the 4KB physical page at pa,
// which is returned by kalloc().
// Adds the page to the current CPU's free list.
void
kfree(void *pa)
{
    800001e6:	7139                	addi	sp,sp,-64
    800001e8:	fc06                	sd	ra,56(sp)
    800001ea:	f822                	sd	s0,48(sp)
    800001ec:	f426                	sd	s1,40(sp)
    800001ee:	f04a                	sd	s2,32(sp)
    800001f0:	ec4e                	sd	s3,24(sp)
    800001f2:	e852                	sd	s4,16(sp)
    800001f4:	e456                	sd	s5,8(sp)
    800001f6:	0080                	addi	s0,sp,64
  struct run *r;
  int cid;

  if(((uint64)pa % PGSIZE) != 0 || (char*)pa < end || (uint64)pa >= PHYSTOP)
    800001f8:	03451793          	slli	a5,a0,0x34
    800001fc:	e7d1                	bnez	a5,80000288 <kfree+0xa2>
    800001fe:	84aa                	mv	s1,a0
    80000200:	00026797          	auipc	a5,0x26
    80000204:	cf878793          	addi	a5,a5,-776 # 80025ef8 <end>
    80000208:	08f56063          	bltu	a0,a5,80000288 <kfree+0xa2>
    8000020c:	47c5                	li	a5,17
    8000020e:	07ee                	slli	a5,a5,0x1b
    80000210:	06f57c63          	bgeu	a0,a5,80000288 <kfree+0xa2>
    panic("kfree: freeing invalid physical address");
  
  // Check if trying to kfree a page within the active superpage pool.
  // This should not happen; superpages are freed by superfree.
  if (superpages_pool_active &&
    80000214:	0000c797          	auipc	a5,0xc
    80000218:	c9c7a783          	lw	a5,-868(a5) # 8000beb0 <superpages_pool_active>
    8000021c:	cf81                	beqz	a5,80000234 <kfree+0x4e>
      (uint64)pa >= superpages_physaddr_start &&
    8000021e:	0000c797          	auipc	a5,0xc
    80000222:	c9a7b783          	ld	a5,-870(a5) # 8000beb8 <superpages_physaddr_start>
  if (superpages_pool_active &&
    80000226:	00f56763          	bltu	a0,a5,80000234 <kfree+0x4e>
      (uint64)pa < superpages_physaddr_start + (uint64)NSUPERPG * SUPERPGSIZE)
    8000022a:	010006b7          	lui	a3,0x1000
    8000022e:	97b6                	add	a5,a5,a3
      (uint64)pa >= superpages_physaddr_start &&
    80000230:	06f56263          	bltu	a0,a5,80000294 <kfree+0xae>
  {
    panic("kfree: attempt to free a 4KB page within the superpage reserved area");
  }

  // Fill with junk to catch dangling references.
  memset(pa, 1, PGSIZE);
    80000234:	6605                	lui	a2,0x1
    80000236:	4585                	li	a1,1
    80000238:	8526                	mv	a0,s1
    8000023a:	274000ef          	jal	800004ae <memset>

  r = (struct run*)pa;

  push_off(); // Disable interrupts to safely get cpuid
    8000023e:	478060ef          	jal	800066b6 <push_off>
  cid = cpuid();
    80000242:	54a010ef          	jal	8000178c <cpuid>
    80000246:	8a2a                	mv	s4,a0
  pop_off();  // Re-enable interrupts
    80000248:	526060ef          	jal	8000676e <pop_off>
  
  acquire(&kmems[cid].lock);
    8000024c:	0000ca97          	auipc	s5,0xc
    80000250:	cb4a8a93          	addi	s5,s5,-844 # 8000bf00 <kmems>
    80000254:	003a1993          	slli	s3,s4,0x3
    80000258:	41498933          	sub	s2,s3,s4
    8000025c:	090e                	slli	s2,s2,0x3
    8000025e:	9956                	add	s2,s2,s5
    80000260:	854a                	mv	a0,s2
    80000262:	494060ef          	jal	800066f6 <acquire>
  r->next = kmems[cid].freelist;
    80000266:	02093783          	ld	a5,32(s2)
    8000026a:	e09c                	sd	a5,0(s1)
  kmems[cid].freelist = r;
    8000026c:	02993023          	sd	s1,32(s2)
  release(&kmems[cid].lock);
    80000270:	854a                	mv	a0,s2
    80000272:	550060ef          	jal	800067c2 <release>
}
    80000276:	70e2                	ld	ra,56(sp)
    80000278:	7442                	ld	s0,48(sp)
    8000027a:	74a2                	ld	s1,40(sp)
    8000027c:	7902                	ld	s2,32(sp)
    8000027e:	69e2                	ld	s3,24(sp)
    80000280:	6a42                	ld	s4,16(sp)
    80000282:	6aa2                	ld	s5,8(sp)
    80000284:	6121                	addi	sp,sp,64
    80000286:	8082                	ret
    panic("kfree: freeing invalid physical address");
    80000288:	00008517          	auipc	a0,0x8
    8000028c:	e8850513          	addi	a0,a0,-376 # 80008110 <etext+0x110>
    80000290:	112060ef          	jal	800063a2 <panic>
    panic("kfree: attempt to free a 4KB page within the superpage reserved area");
    80000294:	00008517          	auipc	a0,0x8
    80000298:	ea450513          	addi	a0,a0,-348 # 80008138 <etext+0x138>
    8000029c:	106060ef          	jal	800063a2 <panic>

00000000800002a0 <kalloc>:
// Allocate one 4KB physical page.
// Returns a pointer to the page, or 0 if out of memory.
// Tries local CPU list first, then steals from other CPUs.
void *
kalloc(void)
{
    800002a0:	7139                	addi	sp,sp,-64
    800002a2:	fc06                	sd	ra,56(sp)
    800002a4:	f822                	sd	s0,48(sp)
    800002a6:	f426                	sd	s1,40(sp)
    800002a8:	ec4e                	sd	s3,24(sp)
    800002aa:	e852                	sd	s4,16(sp)
    800002ac:	0080                	addi	s0,sp,64
  struct run *r;
  int my_cid;

  push_off();
    800002ae:	408060ef          	jal	800066b6 <push_off>
  my_cid = cpuid();
    800002b2:	4da010ef          	jal	8000178c <cpuid>
    800002b6:	89aa                	mv	s3,a0
  pop_off();
    800002b8:	4b6060ef          	jal	8000676e <pop_off>
  
  // 1. Try to allocate from the current CPU's local freelist
  acquire(&kmems[my_cid].lock);
    800002bc:	00399793          	slli	a5,s3,0x3
    800002c0:	413787b3          	sub	a5,a5,s3
    800002c4:	078e                	slli	a5,a5,0x3
    800002c6:	0000c497          	auipc	s1,0xc
    800002ca:	c3a48493          	addi	s1,s1,-966 # 8000bf00 <kmems>
    800002ce:	94be                	add	s1,s1,a5
    800002d0:	8526                	mv	a0,s1
    800002d2:	424060ef          	jal	800066f6 <acquire>
  r = kmems[my_cid].freelist;
    800002d6:	0204ba03          	ld	s4,32(s1)
  if(r){
    800002da:	020a0563          	beqz	s4,80000304 <kalloc+0x64>
    kmems[my_cid].freelist = r->next;
    800002de:	000a3683          	ld	a3,0(s4)
    800002e2:	f094                	sd	a3,32(s1)
    release(&kmems[my_cid].lock);
    800002e4:	8526                	mv	a0,s1
    800002e6:	4dc060ef          	jal	800067c2 <release>
    memset((char*)r, 5, PGSIZE); // fill with junk
    800002ea:	6605                	lui	a2,0x1
    800002ec:	4595                	li	a1,5
    800002ee:	8552                	mv	a0,s4
    800002f0:	1be000ef          	jal	800004ae <memset>
    release(&kmems[other_cid].lock);
  }
  
  // printf("kalloc: 4KB out of memory!\n"); // Optional: uncomment for debugging OOM
  return 0; // All CPUs' freelists are empty
}
    800002f4:	8552                	mv	a0,s4
    800002f6:	70e2                	ld	ra,56(sp)
    800002f8:	7442                	ld	s0,48(sp)
    800002fa:	74a2                	ld	s1,40(sp)
    800002fc:	69e2                	ld	s3,24(sp)
    800002fe:	6a42                	ld	s4,16(sp)
    80000300:	6121                	addi	sp,sp,64
    80000302:	8082                	ret
    80000304:	f04a                	sd	s2,32(sp)
    80000306:	e456                	sd	s5,8(sp)
    80000308:	e05a                	sd	s6,0(sp)
  release(&kmems[my_cid].lock); // Local list is empty, release its lock
    8000030a:	8526                	mv	a0,s1
    8000030c:	4b6060ef          	jal	800067c2 <release>
  for(int other_cid = 0; other_cid < NCPU; other_cid++){
    80000310:	0000c917          	auipc	s2,0xc
    80000314:	bf090913          	addi	s2,s2,-1040 # 8000bf00 <kmems>
    80000318:	4481                	li	s1,0
    8000031a:	4b21                	li	s6,8
    8000031c:	a83d                	j	8000035a <kalloc+0xba>
      kmems[other_cid].freelist = r->next; 
    8000031e:	000ab683          	ld	a3,0(s5)
    80000322:	00349793          	slli	a5,s1,0x3
    80000326:	8f85                	sub	a5,a5,s1
    80000328:	078e                	slli	a5,a5,0x3
    8000032a:	0000c717          	auipc	a4,0xc
    8000032e:	bd670713          	addi	a4,a4,-1066 # 8000bf00 <kmems>
    80000332:	97ba                	add	a5,a5,a4
    80000334:	f394                	sd	a3,32(a5)
      release(&kmems[other_cid].lock);
    80000336:	854a                	mv	a0,s2
    80000338:	48a060ef          	jal	800067c2 <release>
      memset((char*)r, 5, PGSIZE); // fill with junk
    8000033c:	6605                	lui	a2,0x1
    8000033e:	4595                	li	a1,5
    80000340:	8556                	mv	a0,s5
    80000342:	16c000ef          	jal	800004ae <memset>
      return (void*)r; 
    80000346:	8a56                	mv	s4,s5
    80000348:	7902                	ld	s2,32(sp)
    8000034a:	6aa2                	ld	s5,8(sp)
    8000034c:	6b02                	ld	s6,0(sp)
    8000034e:	b75d                	j	800002f4 <kalloc+0x54>
  for(int other_cid = 0; other_cid < NCPU; other_cid++){
    80000350:	2485                	addiw	s1,s1,1
    80000352:	03890913          	addi	s2,s2,56
    80000356:	01648f63          	beq	s1,s6,80000374 <kalloc+0xd4>
    if(other_cid == my_cid)
    8000035a:	fe998be3          	beq	s3,s1,80000350 <kalloc+0xb0>
    acquire(&kmems[other_cid].lock);
    8000035e:	854a                	mv	a0,s2
    80000360:	396060ef          	jal	800066f6 <acquire>
    r = kmems[other_cid].freelist;
    80000364:	02093a83          	ld	s5,32(s2)
    if(r){ // If the other CPU has a free page
    80000368:	fa0a9be3          	bnez	s5,8000031e <kalloc+0x7e>
    release(&kmems[other_cid].lock);
    8000036c:	854a                	mv	a0,s2
    8000036e:	454060ef          	jal	800067c2 <release>
    80000372:	bff9                	j	80000350 <kalloc+0xb0>
    80000374:	7902                	ld	s2,32(sp)
    80000376:	6aa2                	ld	s5,8(sp)
    80000378:	6b02                	ld	s6,0(sp)
    8000037a:	bfad                	j	800002f4 <kalloc+0x54>

000000008000037c <superalloc>:

// Allocate a 2MB-aligned physical superpage.
// Returns a pointer to the page if successful, 0 otherwise.
void*
superalloc(void)
{
    8000037c:	1101                	addi	sp,sp,-32
    8000037e:	ec06                	sd	ra,24(sp)
    80000380:	e822                	sd	s0,16(sp)
    80000382:	e426                	sd	s1,8(sp)
    80000384:	1000                	addi	s0,sp,32
  if (!superpages_pool_active) { // Check if pool was successfully initialized
    80000386:	0000c797          	auipc	a5,0xc
    8000038a:	b2a7a783          	lw	a5,-1238(a5) # 8000beb0 <superpages_pool_active>
    return 0; 
    8000038e:	4481                	li	s1,0
  if (!superpages_pool_active) { // Check if pool was successfully initialized
    80000390:	cb95                	beqz	a5,800003c4 <superalloc+0x48>
  }

  acquire(&superlock);
    80000392:	0000c517          	auipc	a0,0xc
    80000396:	d2e50513          	addi	a0,a0,-722 # 8000c0c0 <superlock>
    8000039a:	35c060ef          	jal	800066f6 <acquire>
  for (int i = 0; i < NSUPERPG; i++) {
    8000039e:	0000c797          	auipc	a5,0xc
    800003a2:	b2278793          	addi	a5,a5,-1246 # 8000bec0 <superpages_status>
    800003a6:	46a1                	li	a3,8
    if (superpages_status[i] == 0) { // If block 'i' is free
    800003a8:	0007c703          	lbu	a4,0(a5)
    800003ac:	c315                	beqz	a4,800003d0 <superalloc+0x54>
  for (int i = 0; i < NSUPERPG; i++) {
    800003ae:	2485                	addiw	s1,s1,1
    800003b0:	0785                	addi	a5,a5,1
    800003b2:	fed49be3          	bne	s1,a3,800003a8 <superalloc+0x2c>
      uint64 pa = superpages_physaddr_start + (uint64)i * SUPERPGSIZE;
      memset((void*)pa, 0, SUPERPGSIZE); // Zero out the superpage
      return (void*)pa;
    }
  }
  release(&superlock);
    800003b6:	0000c517          	auipc	a0,0xc
    800003ba:	d0a50513          	addi	a0,a0,-758 # 8000c0c0 <superlock>
    800003be:	404060ef          	jal	800067c2 <release>
  // printf("superalloc: out of superpages!\n"); // Optional: uncomment for debugging
  return 0; // No free superpages found
    800003c2:	4481                	li	s1,0
}
    800003c4:	8526                	mv	a0,s1
    800003c6:	60e2                	ld	ra,24(sp)
    800003c8:	6442                	ld	s0,16(sp)
    800003ca:	64a2                	ld	s1,8(sp)
    800003cc:	6105                	addi	sp,sp,32
    800003ce:	8082                	ret
      superpages_status[i] = 1;    // Mark as used
    800003d0:	0000c797          	auipc	a5,0xc
    800003d4:	af078793          	addi	a5,a5,-1296 # 8000bec0 <superpages_status>
    800003d8:	97a6                	add	a5,a5,s1
    800003da:	4705                	li	a4,1
    800003dc:	00e78023          	sb	a4,0(a5)
      release(&superlock);
    800003e0:	0000c517          	auipc	a0,0xc
    800003e4:	ce050513          	addi	a0,a0,-800 # 8000c0c0 <superlock>
    800003e8:	3da060ef          	jal	800067c2 <release>
      uint64 pa = superpages_physaddr_start + (uint64)i * SUPERPGSIZE;
    800003ec:	04d6                	slli	s1,s1,0x15
    800003ee:	0000c797          	auipc	a5,0xc
    800003f2:	aca7b783          	ld	a5,-1334(a5) # 8000beb8 <superpages_physaddr_start>
    800003f6:	94be                	add	s1,s1,a5
      memset((void*)pa, 0, SUPERPGSIZE); // Zero out the superpage
    800003f8:	00200637          	lui	a2,0x200
    800003fc:	4581                	li	a1,0
    800003fe:	8526                	mv	a0,s1
    80000400:	0ae000ef          	jal	800004ae <memset>
      return (void*)pa;
    80000404:	b7c1                	j	800003c4 <superalloc+0x48>

0000000080000406 <superfree>:

// Free a 2MB-aligned physical superpage.
// 'pa' must be a pointer previously returned by superalloc().
void
superfree(void *pa) 
{
    80000406:	1101                	addi	sp,sp,-32
    80000408:	ec06                	sd	ra,24(sp)
    8000040a:	e822                	sd	s0,16(sp)
    8000040c:	e426                	sd	s1,8(sp)
    8000040e:	1000                	addi	s0,sp,32
  if (!superpages_pool_active) { // Pool not active, something is wrong if we try to free
    80000410:	0000c797          	auipc	a5,0xc
    80000414:	aa07a783          	lw	a5,-1376(a5) # 8000beb0 <superpages_pool_active>
    80000418:	c3bd                	beqz	a5,8000047e <superfree+0x78>
    panic("superfree: called but superpage pool is not active"); 
  }
  // Validate that 'pa' is within the managed superpage pool range
  if ((uint64)pa < superpages_physaddr_start ||
    8000041a:	0000c717          	auipc	a4,0xc
    8000041e:	a9e73703          	ld	a4,-1378(a4) # 8000beb8 <superpages_physaddr_start>
    80000422:	06e56463          	bltu	a0,a4,8000048a <superfree+0x84>
      (uint64)pa >= superpages_physaddr_start + (uint64)NSUPERPG * SUPERPGSIZE)
    80000426:	010007b7          	lui	a5,0x1000
    8000042a:	97ba                	add	a5,a5,a4
  if ((uint64)pa < superpages_physaddr_start ||
    8000042c:	04f57f63          	bgeu	a0,a5,8000048a <superfree+0x84>
  {
    panic("superfree: physical address out of superpage pool range"); 
  }
  // Validate that 'pa' is aligned to a SUPERPGSIZE boundary
  if (((uint64)pa - superpages_physaddr_start) % SUPERPGSIZE != 0) {
    80000430:	8d19                	sub	a0,a0,a4
    80000432:	02b51793          	slli	a5,a0,0x2b
    80000436:	e3a5                	bnez	a5,80000496 <superfree+0x90>
    panic("superfree: physical address not superpage aligned"); 
  }

  int index = ((uint64)pa - superpages_physaddr_start) / SUPERPGSIZE;
    80000438:	8155                	srli	a0,a0,0x15
    8000043a:	0005049b          	sext.w	s1,a0

  acquire(&superlock);
    8000043e:	0000c517          	auipc	a0,0xc
    80000442:	c8250513          	addi	a0,a0,-894 # 8000c0c0 <superlock>
    80000446:	2b0060ef          	jal	800066f6 <acquire>
  if (superpages_status[index] == 0) { // Check if trying to free an already free page
    8000044a:	0000c797          	auipc	a5,0xc
    8000044e:	a7678793          	addi	a5,a5,-1418 # 8000bec0 <superpages_status>
    80000452:	97a6                	add	a5,a5,s1
    80000454:	0007c783          	lbu	a5,0(a5)
    80000458:	c7a9                	beqz	a5,800004a2 <superfree+0x9c>
    panic("superfree: freeing an already free superpage"); 
  }
  superpages_status[index] = 0; // Mark as free
    8000045a:	0000c797          	auipc	a5,0xc
    8000045e:	a6678793          	addi	a5,a5,-1434 # 8000bec0 <superpages_status>
    80000462:	97a6                	add	a5,a5,s1
    80000464:	00078023          	sb	zero,0(a5)
  // Optionally, could fill with junk like kfree does for 4KB pages, e.g., memset(pa, 2, SUPERPGSIZE);
  release(&superlock);
    80000468:	0000c517          	auipc	a0,0xc
    8000046c:	c5850513          	addi	a0,a0,-936 # 8000c0c0 <superlock>
    80000470:	352060ef          	jal	800067c2 <release>
}
    80000474:	60e2                	ld	ra,24(sp)
    80000476:	6442                	ld	s0,16(sp)
    80000478:	64a2                	ld	s1,8(sp)
    8000047a:	6105                	addi	sp,sp,32
    8000047c:	8082                	ret
    panic("superfree: called but superpage pool is not active"); 
    8000047e:	00008517          	auipc	a0,0x8
    80000482:	d0250513          	addi	a0,a0,-766 # 80008180 <etext+0x180>
    80000486:	71d050ef          	jal	800063a2 <panic>
    panic("superfree: physical address out of superpage pool range"); 
    8000048a:	00008517          	auipc	a0,0x8
    8000048e:	d2e50513          	addi	a0,a0,-722 # 800081b8 <etext+0x1b8>
    80000492:	711050ef          	jal	800063a2 <panic>
    panic("superfree: physical address not superpage aligned"); 
    80000496:	00008517          	auipc	a0,0x8
    8000049a:	d5a50513          	addi	a0,a0,-678 # 800081f0 <etext+0x1f0>
    8000049e:	705050ef          	jal	800063a2 <panic>
    panic("superfree: freeing an already free superpage"); 
    800004a2:	00008517          	auipc	a0,0x8
    800004a6:	d8650513          	addi	a0,a0,-634 # 80008228 <etext+0x228>
    800004aa:	6f9050ef          	jal	800063a2 <panic>

00000000800004ae <memset>:
#include "types.h"

void*
memset(void *dst, int c, uint n)
{
    800004ae:	1141                	addi	sp,sp,-16
    800004b0:	e422                	sd	s0,8(sp)
    800004b2:	0800                	addi	s0,sp,16
  char *cdst = (char *) dst;
  int i;
  for(i = 0; i < n; i++){
    800004b4:	ca19                	beqz	a2,800004ca <memset+0x1c>
    800004b6:	87aa                	mv	a5,a0
    800004b8:	1602                	slli	a2,a2,0x20
    800004ba:	9201                	srli	a2,a2,0x20
    800004bc:	00a60733          	add	a4,a2,a0
    cdst[i] = c;
    800004c0:	00b78023          	sb	a1,0(a5)
  for(i = 0; i < n; i++){
    800004c4:	0785                	addi	a5,a5,1
    800004c6:	fee79de3          	bne	a5,a4,800004c0 <memset+0x12>
  }
  return dst;
}
    800004ca:	6422                	ld	s0,8(sp)
    800004cc:	0141                	addi	sp,sp,16
    800004ce:	8082                	ret

00000000800004d0 <memcmp>:

int
memcmp(const void *v1, const void *v2, uint n)
{
    800004d0:	1141                	addi	sp,sp,-16
    800004d2:	e422                	sd	s0,8(sp)
    800004d4:	0800                	addi	s0,sp,16
  const uchar *s1, *s2;

  s1 = v1;
  s2 = v2;
  while(n-- > 0){
    800004d6:	ca05                	beqz	a2,80000506 <memcmp+0x36>
    800004d8:	fff6069b          	addiw	a3,a2,-1 # 1fffff <_entry-0x7fe00001>
    800004dc:	1682                	slli	a3,a3,0x20
    800004de:	9281                	srli	a3,a3,0x20
    800004e0:	0685                	addi	a3,a3,1 # 1000001 <_entry-0x7effffff>
    800004e2:	96aa                	add	a3,a3,a0
    if(*s1 != *s2)
    800004e4:	00054783          	lbu	a5,0(a0)
    800004e8:	0005c703          	lbu	a4,0(a1)
    800004ec:	00e79863          	bne	a5,a4,800004fc <memcmp+0x2c>
      return *s1 - *s2;
    s1++, s2++;
    800004f0:	0505                	addi	a0,a0,1
    800004f2:	0585                	addi	a1,a1,1
  while(n-- > 0){
    800004f4:	fed518e3          	bne	a0,a3,800004e4 <memcmp+0x14>
  }

  return 0;
    800004f8:	4501                	li	a0,0
    800004fa:	a019                	j	80000500 <memcmp+0x30>
      return *s1 - *s2;
    800004fc:	40e7853b          	subw	a0,a5,a4
}
    80000500:	6422                	ld	s0,8(sp)
    80000502:	0141                	addi	sp,sp,16
    80000504:	8082                	ret
  return 0;
    80000506:	4501                	li	a0,0
    80000508:	bfe5                	j	80000500 <memcmp+0x30>

000000008000050a <memmove>:

void*
memmove(void *dst, const void *src, uint n)
{
    8000050a:	1141                	addi	sp,sp,-16
    8000050c:	e422                	sd	s0,8(sp)
    8000050e:	0800                	addi	s0,sp,16
  const char *s;
  char *d;

  if(n == 0)
    80000510:	c205                	beqz	a2,80000530 <memmove+0x26>
    return dst;
  
  s = src;
  d = dst;
  if(s < d && s + n > d){
    80000512:	02a5e263          	bltu	a1,a0,80000536 <memmove+0x2c>
    s += n;
    d += n;
    while(n-- > 0)
      *--d = *--s;
  } else
    while(n-- > 0)
    80000516:	1602                	slli	a2,a2,0x20
    80000518:	9201                	srli	a2,a2,0x20
    8000051a:	00c587b3          	add	a5,a1,a2
{
    8000051e:	872a                	mv	a4,a0
      *d++ = *s++;
    80000520:	0585                	addi	a1,a1,1
    80000522:	0705                	addi	a4,a4,1
    80000524:	fff5c683          	lbu	a3,-1(a1)
    80000528:	fed70fa3          	sb	a3,-1(a4)
    while(n-- > 0)
    8000052c:	feb79ae3          	bne	a5,a1,80000520 <memmove+0x16>

  return dst;
}
    80000530:	6422                	ld	s0,8(sp)
    80000532:	0141                	addi	sp,sp,16
    80000534:	8082                	ret
  if(s < d && s + n > d){
    80000536:	02061693          	slli	a3,a2,0x20
    8000053a:	9281                	srli	a3,a3,0x20
    8000053c:	00d58733          	add	a4,a1,a3
    80000540:	fce57be3          	bgeu	a0,a4,80000516 <memmove+0xc>
    d += n;
    80000544:	96aa                	add	a3,a3,a0
    while(n-- > 0)
    80000546:	fff6079b          	addiw	a5,a2,-1
    8000054a:	1782                	slli	a5,a5,0x20
    8000054c:	9381                	srli	a5,a5,0x20
    8000054e:	fff7c793          	not	a5,a5
    80000552:	97ba                	add	a5,a5,a4
      *--d = *--s;
    80000554:	177d                	addi	a4,a4,-1
    80000556:	16fd                	addi	a3,a3,-1
    80000558:	00074603          	lbu	a2,0(a4)
    8000055c:	00c68023          	sb	a2,0(a3)
    while(n-- > 0)
    80000560:	fef71ae3          	bne	a4,a5,80000554 <memmove+0x4a>
    80000564:	b7f1                	j	80000530 <memmove+0x26>

0000000080000566 <memcpy>:

// memcpy exists to placate GCC.  Use memmove.
void*
memcpy(void *dst, const void *src, uint n)
{
    80000566:	1141                	addi	sp,sp,-16
    80000568:	e406                	sd	ra,8(sp)
    8000056a:	e022                	sd	s0,0(sp)
    8000056c:	0800                	addi	s0,sp,16
  return memmove(dst, src, n);
    8000056e:	f9dff0ef          	jal	8000050a <memmove>
}
    80000572:	60a2                	ld	ra,8(sp)
    80000574:	6402                	ld	s0,0(sp)
    80000576:	0141                	addi	sp,sp,16
    80000578:	8082                	ret

000000008000057a <strncmp>:

int
strncmp(const char *p, const char *q, uint n)
{
    8000057a:	1141                	addi	sp,sp,-16
    8000057c:	e422                	sd	s0,8(sp)
    8000057e:	0800                	addi	s0,sp,16
  while(n > 0 && *p && *p == *q)
    80000580:	ce11                	beqz	a2,8000059c <strncmp+0x22>
    80000582:	00054783          	lbu	a5,0(a0)
    80000586:	cf89                	beqz	a5,800005a0 <strncmp+0x26>
    80000588:	0005c703          	lbu	a4,0(a1)
    8000058c:	00f71a63          	bne	a4,a5,800005a0 <strncmp+0x26>
    n--, p++, q++;
    80000590:	367d                	addiw	a2,a2,-1
    80000592:	0505                	addi	a0,a0,1
    80000594:	0585                	addi	a1,a1,1
  while(n > 0 && *p && *p == *q)
    80000596:	f675                	bnez	a2,80000582 <strncmp+0x8>
  if(n == 0)
    return 0;
    80000598:	4501                	li	a0,0
    8000059a:	a801                	j	800005aa <strncmp+0x30>
    8000059c:	4501                	li	a0,0
    8000059e:	a031                	j	800005aa <strncmp+0x30>
  return (uchar)*p - (uchar)*q;
    800005a0:	00054503          	lbu	a0,0(a0)
    800005a4:	0005c783          	lbu	a5,0(a1)
    800005a8:	9d1d                	subw	a0,a0,a5
}
    800005aa:	6422                	ld	s0,8(sp)
    800005ac:	0141                	addi	sp,sp,16
    800005ae:	8082                	ret

00000000800005b0 <strncpy>:

char*
strncpy(char *s, const char *t, int n)
{
    800005b0:	1141                	addi	sp,sp,-16
    800005b2:	e422                	sd	s0,8(sp)
    800005b4:	0800                	addi	s0,sp,16
  char *os;

  os = s;
  while(n-- > 0 && (*s++ = *t++) != 0)
    800005b6:	87aa                	mv	a5,a0
    800005b8:	86b2                	mv	a3,a2
    800005ba:	367d                	addiw	a2,a2,-1
    800005bc:	02d05563          	blez	a3,800005e6 <strncpy+0x36>
    800005c0:	0785                	addi	a5,a5,1
    800005c2:	0005c703          	lbu	a4,0(a1)
    800005c6:	fee78fa3          	sb	a4,-1(a5)
    800005ca:	0585                	addi	a1,a1,1
    800005cc:	f775                	bnez	a4,800005b8 <strncpy+0x8>
    ;
  while(n-- > 0)
    800005ce:	873e                	mv	a4,a5
    800005d0:	9fb5                	addw	a5,a5,a3
    800005d2:	37fd                	addiw	a5,a5,-1
    800005d4:	00c05963          	blez	a2,800005e6 <strncpy+0x36>
    *s++ = 0;
    800005d8:	0705                	addi	a4,a4,1
    800005da:	fe070fa3          	sb	zero,-1(a4)
  while(n-- > 0)
    800005de:	40e786bb          	subw	a3,a5,a4
    800005e2:	fed04be3          	bgtz	a3,800005d8 <strncpy+0x28>
  return os;
}
    800005e6:	6422                	ld	s0,8(sp)
    800005e8:	0141                	addi	sp,sp,16
    800005ea:	8082                	ret

00000000800005ec <safestrcpy>:

// Like strncpy but guaranteed to NUL-terminate.
char*
safestrcpy(char *s, const char *t, int n)
{
    800005ec:	1141                	addi	sp,sp,-16
    800005ee:	e422                	sd	s0,8(sp)
    800005f0:	0800                	addi	s0,sp,16
  char *os;

  os = s;
  if(n <= 0)
    800005f2:	02c05363          	blez	a2,80000618 <safestrcpy+0x2c>
    800005f6:	fff6069b          	addiw	a3,a2,-1
    800005fa:	1682                	slli	a3,a3,0x20
    800005fc:	9281                	srli	a3,a3,0x20
    800005fe:	96ae                	add	a3,a3,a1
    80000600:	87aa                	mv	a5,a0
    return os;
  while(--n > 0 && (*s++ = *t++) != 0)
    80000602:	00d58963          	beq	a1,a3,80000614 <safestrcpy+0x28>
    80000606:	0585                	addi	a1,a1,1
    80000608:	0785                	addi	a5,a5,1
    8000060a:	fff5c703          	lbu	a4,-1(a1)
    8000060e:	fee78fa3          	sb	a4,-1(a5)
    80000612:	fb65                	bnez	a4,80000602 <safestrcpy+0x16>
    ;
  *s = 0;
    80000614:	00078023          	sb	zero,0(a5)
  return os;
}
    80000618:	6422                	ld	s0,8(sp)
    8000061a:	0141                	addi	sp,sp,16
    8000061c:	8082                	ret

000000008000061e <strlen>:

int
strlen(const char *s)
{
    8000061e:	1141                	addi	sp,sp,-16
    80000620:	e422                	sd	s0,8(sp)
    80000622:	0800                	addi	s0,sp,16
  int n;

  for(n = 0; s[n]; n++)
    80000624:	00054783          	lbu	a5,0(a0)
    80000628:	cf91                	beqz	a5,80000644 <strlen+0x26>
    8000062a:	0505                	addi	a0,a0,1
    8000062c:	87aa                	mv	a5,a0
    8000062e:	86be                	mv	a3,a5
    80000630:	0785                	addi	a5,a5,1
    80000632:	fff7c703          	lbu	a4,-1(a5)
    80000636:	ff65                	bnez	a4,8000062e <strlen+0x10>
    80000638:	40a6853b          	subw	a0,a3,a0
    8000063c:	2505                	addiw	a0,a0,1
    ;
  return n;
}
    8000063e:	6422                	ld	s0,8(sp)
    80000640:	0141                	addi	sp,sp,16
    80000642:	8082                	ret
  for(n = 0; s[n]; n++)
    80000644:	4501                	li	a0,0
    80000646:	bfe5                	j	8000063e <strlen+0x20>

0000000080000648 <k_strrev>:

// 辅助函数，反转字符串
// s: 要反转的字符串
// len: 字符串的有效长度 (不包括末尾的 \0，如果已添加)
void k_strrev(char *s, int len) {
    80000648:	1141                	addi	sp,sp,-16
    8000064a:	e422                	sd	s0,8(sp)
    8000064c:	0800                	addi	s0,sp,16
  for (int i = 0; i < len / 2; i++) {
    8000064e:	01f5d81b          	srliw	a6,a1,0x1f
    80000652:	00b8083b          	addw	a6,a6,a1
    80000656:	4785                	li	a5,1
    80000658:	02b7d563          	bge	a5,a1,80000682 <k_strrev+0x3a>
    8000065c:	4018581b          	sraiw	a6,a6,0x1
    80000660:	87aa                	mv	a5,a0
    80000662:	15fd                	addi	a1,a1,-1
    80000664:	952e                	add	a0,a0,a1
    80000666:	4701                	li	a4,0
      char t = s[i];
    80000668:	0007c683          	lbu	a3,0(a5)
      s[i] = s[len - 1 - i];
    8000066c:	00054603          	lbu	a2,0(a0)
    80000670:	00c78023          	sb	a2,0(a5)
      s[len - 1 - i] = t;
    80000674:	00d50023          	sb	a3,0(a0)
  for (int i = 0; i < len / 2; i++) {
    80000678:	2705                	addiw	a4,a4,1
    8000067a:	0785                	addi	a5,a5,1
    8000067c:	157d                	addi	a0,a0,-1
    8000067e:	ff0745e3          	blt	a4,a6,80000668 <k_strrev+0x20>
  }
}
    80000682:	6422                	ld	s0,8(sp)
    80000684:	0141                	addi	sp,sp,16
    80000686:	8082                	ret

0000000080000688 <k_itoa>:
// 简化版 itoa (整数转ASCII字符串)
// n: 要转换的整数
// s: 存储结果的字符缓冲区
// base: 转换的基数 (通常是10)
// 返回转换后的字符串长度 (不包括末尾的 \0)
int k_itoa(long long val, char *s, int base) {
    80000688:	1101                	addi	sp,sp,-32
    8000068a:	ec06                	sd	ra,24(sp)
    8000068c:	e822                	sd	s0,16(sp)
    8000068e:	e426                	sd	s1,8(sp)
    80000690:	1000                	addi	s0,sp,32
    80000692:	872a                	mv	a4,a0
    80000694:	852e                	mv	a0,a1
  int i = 0;
  int sign = 0;
  unsigned long long n;

  if (val == 0) {
    80000696:	cb09                	beqz	a4,800006a8 <k_itoa+0x20>
      s[i++] = '0';
      s[i] = '\0';
      return 1;
  }

  if (val < 0 && base == 10) {
    80000698:	02074063          	bltz	a4,800006b8 <k_itoa+0x30>
  int sign = 0;
    8000069c:	4581                	li	a1,0
      n = -val;
  } else {
      n = val;
  }

  while (n != 0) {
    8000069e:	86aa                	mv	a3,a0
    800006a0:	4801                	li	a6,0
      int rem = n % base;
    800006a2:	8e32                	mv	t3,a2
      s[i++] = (rem > 9) ? (rem - 10) + 'a' : rem + '0';
    800006a4:	4325                	li	t1,9
    800006a6:	a83d                	j	800006e4 <k_itoa+0x5c>
      s[i++] = '0';
    800006a8:	03000793          	li	a5,48
    800006ac:	00f58023          	sb	a5,0(a1)
      s[i] = '\0';
    800006b0:	000580a3          	sb	zero,1(a1)
      return 1;
    800006b4:	4485                	li	s1,1
    800006b6:	a08d                	j	80000718 <k_itoa+0x90>
  if (val < 0 && base == 10) {
    800006b8:	47a9                	li	a5,10
    800006ba:	fef611e3          	bne	a2,a5,8000069c <k_itoa+0x14>
      n = -val;
    800006be:	40e00733          	neg	a4,a4
      sign = 1;
    800006c2:	4585                	li	a1,1
      n = -val;
    800006c4:	bfe9                	j	8000069e <k_itoa+0x16>
      s[i++] = (rem > 9) ? (rem - 10) + 'a' : rem + '0';
    800006c6:	0307879b          	addiw	a5,a5,48
    800006ca:	0ff7f793          	zext.b	a5,a5
    800006ce:	0018049b          	addiw	s1,a6,1
    800006d2:	00f68023          	sb	a5,0(a3)
      n = n / base;
    800006d6:	02c757b3          	divu	a5,a4,a2
  while (n != 0) {
    800006da:	0685                	addi	a3,a3,1
    800006dc:	01c76f63          	bltu	a4,t3,800006fa <k_itoa+0x72>
    800006e0:	873e                	mv	a4,a5
    800006e2:	8826                	mv	a6,s1
      int rem = n % base;
    800006e4:	02c777b3          	remu	a5,a4,a2
      s[i++] = (rem > 9) ? (rem - 10) + 'a' : rem + '0';
    800006e8:	0007889b          	sext.w	a7,a5
    800006ec:	fd135de3          	bge	t1,a7,800006c6 <k_itoa+0x3e>
    800006f0:	0577879b          	addiw	a5,a5,87
    800006f4:	0ff7f793          	zext.b	a5,a5
    800006f8:	bfd9                	j	800006ce <k_itoa+0x46>
  }

  if (sign) {
    800006fa:	c981                	beqz	a1,8000070a <k_itoa+0x82>
      s[i++] = '-';
    800006fc:	94aa                	add	s1,s1,a0
    800006fe:	02d00793          	li	a5,45
    80000702:	00f48023          	sb	a5,0(s1)
    80000706:	0028049b          	addiw	s1,a6,2
  }
  s[i] = '\0'; // Null terminate
    8000070a:	009507b3          	add	a5,a0,s1
    8000070e:	00078023          	sb	zero,0(a5)
  k_strrev(s, i); // 反转字符串，因为数字是反向生成的
    80000712:	85a6                	mv	a1,s1
    80000714:	f35ff0ef          	jal	80000648 <k_strrev>
  return i;       // 返回长度
    80000718:	8526                	mv	a0,s1
    8000071a:	60e2                	ld	ra,24(sp)
    8000071c:	6442                	ld	s0,16(sp)
    8000071e:	64a2                	ld	s1,8(sp)
    80000720:	6105                	addi	sp,sp,32
    80000722:	8082                	ret

0000000080000724 <main>:
volatile static int started = 0;

// start() jumps here in supervisor mode on all CPUs.
void
main()
{
    80000724:	1141                	addi	sp,sp,-16
    80000726:	e406                	sd	ra,8(sp)
    80000728:	e022                	sd	s0,0(sp)
    8000072a:	0800                	addi	s0,sp,16
  if(cpuid() == 0){
    8000072c:	060010ef          	jal	8000178c <cpuid>
    virtio_disk_init(); // emulated hard disk
    userinit();      // first user process
    __sync_synchronize();
    started = 1;
  } else {
    while(started == 0)
    80000730:	0000b717          	auipc	a4,0xb
    80000734:	79870713          	addi	a4,a4,1944 # 8000bec8 <started>
  if(cpuid() == 0){
    80000738:	c51d                	beqz	a0,80000766 <main+0x42>
    while(started == 0)
    8000073a:	431c                	lw	a5,0(a4)
    8000073c:	2781                	sext.w	a5,a5
    8000073e:	dff5                	beqz	a5,8000073a <main+0x16>
      ;
    __sync_synchronize();
    80000740:	0330000f          	fence	rw,rw
    printf("hart %d starting\n", cpuid());
    80000744:	048010ef          	jal	8000178c <cpuid>
    80000748:	85aa                	mv	a1,a0
    8000074a:	00008517          	auipc	a0,0x8
    8000074e:	b2e50513          	addi	a0,a0,-1234 # 80008278 <etext+0x278>
    80000752:	17f050ef          	jal	800060d0 <printf>
    kvminithart();    // turn on paging
    80000756:	084000ef          	jal	800007da <kvminithart>
    trapinithart();   // install kernel trap vector
    8000075a:	45d010ef          	jal	800023b6 <trapinithart>
    plicinithart();   // ask PLIC for device interrupts
    8000075e:	72b040ef          	jal	80005688 <plicinithart>
  }

  scheduler();        
    80000762:	580010ef          	jal	80001ce2 <scheduler>
    consoleinit();
    80000766:	095050ef          	jal	80005ffa <consoleinit>
    printfinit();
    8000076a:	473050ef          	jal	800063dc <printfinit>
    printf("\n");
    8000076e:	00008517          	auipc	a0,0x8
    80000772:	aea50513          	addi	a0,a0,-1302 # 80008258 <etext+0x258>
    80000776:	15b050ef          	jal	800060d0 <printf>
    printf("xv6 kernel is booting\n");
    8000077a:	00008517          	auipc	a0,0x8
    8000077e:	ae650513          	addi	a0,a0,-1306 # 80008260 <etext+0x260>
    80000782:	14f050ef          	jal	800060d0 <printf>
    printf("\n");
    80000786:	00008517          	auipc	a0,0x8
    8000078a:	ad250513          	addi	a0,a0,-1326 # 80008258 <etext+0x258>
    8000078e:	143050ef          	jal	800060d0 <printf>
    lockstatsinit(); // Initialize lock statistics system <--- 添加这行
    80000792:	6bf050ef          	jal	80006650 <lockstatsinit>
    kinit();         // physical page allocator
    80000796:	8f3ff0ef          	jal	80000088 <kinit>
    kvminit();       // create kernel page table
    8000079a:	336000ef          	jal	80000ad0 <kvminit>
    kvminithart();   // turn on paging
    8000079e:	03c000ef          	jal	800007da <kvminithart>
    procinit();      // process table
    800007a2:	735000ef          	jal	800016d6 <procinit>
    trapinit();      // trap vectors
    800007a6:	3ed010ef          	jal	80002392 <trapinit>
    trapinithart();  // install kernel trap vector
    800007aa:	40d010ef          	jal	800023b6 <trapinithart>
    plicinit();      // set up interrupt controller
    800007ae:	6c1040ef          	jal	8000566e <plicinit>
    plicinithart();  // ask PLIC for device interrupts
    800007b2:	6d7040ef          	jal	80005688 <plicinithart>
    binit();         // buffer cache
    800007b6:	658020ef          	jal	80002e0e <binit>
    iinit();         // inode table
    800007ba:	483020ef          	jal	8000343c <iinit>
    fileinit();      // file table
    800007be:	22f030ef          	jal	800041ec <fileinit>
    virtio_disk_init(); // emulated hard disk
    800007c2:	7b7040ef          	jal	80005778 <virtio_disk_init>
    userinit();      // first user process
    800007c6:	25a010ef          	jal	80001a20 <userinit>
    __sync_synchronize();
    800007ca:	0330000f          	fence	rw,rw
    started = 1;
    800007ce:	4785                	li	a5,1
    800007d0:	0000b717          	auipc	a4,0xb
    800007d4:	6ef72c23          	sw	a5,1784(a4) # 8000bec8 <started>
    800007d8:	b769                	j	80000762 <main+0x3e>

00000000800007da <kvminithart>:

// Switch h/w page table register to the kernel's page table,
// and enable paging.
void
kvminithart()
{
    800007da:	1141                	addi	sp,sp,-16
    800007dc:	e422                	sd	s0,8(sp)
    800007de:	0800                	addi	s0,sp,16
  w_satp(MAKE_SATP(kernel_pagetable));
    800007e0:	0000b797          	auipc	a5,0xb
    800007e4:	6f07b783          	ld	a5,1776(a5) # 8000bed0 <kernel_pagetable>
    800007e8:	83b1                	srli	a5,a5,0xc
    800007ea:	577d                	li	a4,-1
    800007ec:	177e                	slli	a4,a4,0x3f
    800007ee:	8fd9                	or	a5,a5,a4
// supervisor address translation and protection;
// holds the address of the page table.
static inline void 
w_satp(uint64 x)
{
  asm volatile("csrw satp, %0" : : "r" (x));
    800007f0:	18079073          	csrw	satp,a5
// flush the TLB.
static inline void
sfence_vma()
{
  // the zero, zero means flush all TLB entries.
  asm volatile("sfence.vma zero, zero");
    800007f4:	12000073          	sfence.vma
  sfence_vma();
}
    800007f8:	6422                	ld	s0,8(sp)
    800007fa:	0141                	addi	sp,sp,16
    800007fc:	8082                	ret

00000000800007fe <walk>:
// Return the address of the PTE in page table pagetable
// that corresponds to virtual address va.  If alloc!=0,
// create any required page-table pages.
pte_t *
walk(pagetable_t pagetable, uint64 va, int alloc)
{
    800007fe:	7139                	addi	sp,sp,-64
    80000800:	fc06                	sd	ra,56(sp)
    80000802:	f822                	sd	s0,48(sp)
    80000804:	f426                	sd	s1,40(sp)
    80000806:	f04a                	sd	s2,32(sp)
    80000808:	ec4e                	sd	s3,24(sp)
    8000080a:	e852                	sd	s4,16(sp)
    8000080c:	e456                	sd	s5,8(sp)
    8000080e:	e05a                	sd	s6,0(sp)
    80000810:	0080                	addi	s0,sp,64
    80000812:	84aa                	mv	s1,a0
    80000814:	89ae                	mv	s3,a1
    80000816:	8b32                	mv	s6,a2
  if(va >= MAXVA)
    80000818:	57fd                	li	a5,-1
    8000081a:	83e9                	srli	a5,a5,0x1a
    8000081c:	4af9                	li	s5,30
    panic("walk");

  for(int level = 2; level > 0; level--) {
    8000081e:	4a09                	li	s4,2
  if(va >= MAXVA)
    80000820:	00b7fe63          	bgeu	a5,a1,8000083c <walk+0x3e>
    panic("walk");
    80000824:	00008517          	auipc	a0,0x8
    80000828:	a6c50513          	addi	a0,a0,-1428 # 80008290 <etext+0x290>
    8000082c:	377050ef          	jal	800063a2 <panic>
    pte_t *pte = &pagetable[PX(level, va)];
    if(*pte & PTE_V) {
      if(level == 1 && (*pte & (PTE_R|PTE_W|PTE_X))) {
        return pte;
      }
      pagetable = (pagetable_t)PTE2PA(*pte);
    80000830:	80a9                	srli	s1,s1,0xa
    80000832:	04b2                	slli	s1,s1,0xc
  for(int level = 2; level > 0; level--) {
    80000834:	3a7d                	addiw	s4,s4,-1
    80000836:	3add                	addiw	s5,s5,-9
    80000838:	040a0663          	beqz	s4,80000884 <walk+0x86>
    pte_t *pte = &pagetable[PX(level, va)];
    8000083c:	0159d933          	srl	s2,s3,s5
    80000840:	1ff97913          	andi	s2,s2,511
    80000844:	090e                	slli	s2,s2,0x3
    80000846:	9926                	add	s2,s2,s1
    if(*pte & PTE_V) {
    80000848:	00093483          	ld	s1,0(s2)
    8000084c:	0014f793          	andi	a5,s1,1
    80000850:	cb81                	beqz	a5,80000860 <walk+0x62>
      if(level == 1 && (*pte & (PTE_R|PTE_W|PTE_X))) {
    80000852:	4785                	li	a5,1
    80000854:	fcfa1ee3          	bne	s4,a5,80000830 <walk+0x32>
    80000858:	00e4f793          	andi	a5,s1,14
    8000085c:	dbf1                	beqz	a5,80000830 <walk+0x32>
    8000085e:	a815                	j	80000892 <walk+0x94>
    } else {
      if(!alloc || (pagetable = (pte_t*)kalloc()) == 0)
    80000860:	040b0463          	beqz	s6,800008a8 <walk+0xaa>
    80000864:	a3dff0ef          	jal	800002a0 <kalloc>
    80000868:	84aa                	mv	s1,a0
    8000086a:	c129                	beqz	a0,800008ac <walk+0xae>
        return 0;
      memset(pagetable, 0, PGSIZE);
    8000086c:	6605                	lui	a2,0x1
    8000086e:	4581                	li	a1,0
    80000870:	c3fff0ef          	jal	800004ae <memset>
      *pte = PA2PTE((uint64)pagetable) | PTE_V;
    80000874:	00c4d793          	srli	a5,s1,0xc
    80000878:	07aa                	slli	a5,a5,0xa
    8000087a:	0017e793          	ori	a5,a5,1
    8000087e:	00f93023          	sd	a5,0(s2)
    80000882:	bf4d                	j	80000834 <walk+0x36>
    }
  }
  return &pagetable[PX(0, va)];
    80000884:	00c9d993          	srli	s3,s3,0xc
    80000888:	1ff9f993          	andi	s3,s3,511
    8000088c:	098e                	slli	s3,s3,0x3
    8000088e:	01348933          	add	s2,s1,s3
}
    80000892:	854a                	mv	a0,s2
    80000894:	70e2                	ld	ra,56(sp)
    80000896:	7442                	ld	s0,48(sp)
    80000898:	74a2                	ld	s1,40(sp)
    8000089a:	7902                	ld	s2,32(sp)
    8000089c:	69e2                	ld	s3,24(sp)
    8000089e:	6a42                	ld	s4,16(sp)
    800008a0:	6aa2                	ld	s5,8(sp)
    800008a2:	6b02                	ld	s6,0(sp)
    800008a4:	6121                	addi	sp,sp,64
    800008a6:	8082                	ret
        return 0;
    800008a8:	4901                	li	s2,0
    800008aa:	b7e5                	j	80000892 <walk+0x94>
    800008ac:	892a                	mv	s2,a0
    800008ae:	b7d5                	j	80000892 <walk+0x94>

00000000800008b0 <walkaddr>:
walkaddr(pagetable_t pagetable, uint64 va)
{
  pte_t *pte;
  uint64 pa;

  if(va >= MAXVA)
    800008b0:	57fd                	li	a5,-1
    800008b2:	83e9                	srli	a5,a5,0x1a
    800008b4:	00b7f463          	bgeu	a5,a1,800008bc <walkaddr+0xc>
    return 0;
    800008b8:	4501                	li	a0,0
      }
  }

  // It's a 4KB page
  return pa + (va & (PGSIZE - 1));
}
    800008ba:	8082                	ret
{
    800008bc:	1101                	addi	sp,sp,-32
    800008be:	ec06                	sd	ra,24(sp)
    800008c0:	e822                	sd	s0,16(sp)
    800008c2:	e426                	sd	s1,8(sp)
    800008c4:	e04a                	sd	s2,0(sp)
    800008c6:	1000                	addi	s0,sp,32
    800008c8:	892a                	mv	s2,a0
    800008ca:	84ae                	mv	s1,a1
  pte = walk(pagetable, va, 0);
    800008cc:	4601                	li	a2,0
    800008ce:	f31ff0ef          	jal	800007fe <walk>
    800008d2:	872a                	mv	a4,a0
  if(pte == 0 || (*pte & PTE_V) == 0 || (*pte & PTE_U) == 0)
    800008d4:	c135                	beqz	a0,80000938 <walkaddr+0x88>
    800008d6:	611c                	ld	a5,0(a0)
    800008d8:	0117f613          	andi	a2,a5,17
    800008dc:	46c5                	li	a3,17
    return 0;
    800008de:	4501                	li	a0,0
  if(pte == 0 || (*pte & PTE_V) == 0 || (*pte & PTE_U) == 0)
    800008e0:	02d61663          	bne	a2,a3,8000090c <walkaddr+0x5c>
  if((*pte & (PTE_R|PTE_W|PTE_X)) == 0){
    800008e4:	00e7f513          	andi	a0,a5,14
    800008e8:	c115                	beqz	a0,8000090c <walkaddr+0x5c>
  pa = PTE2PA(*pte);
    800008ea:	83a9                	srli	a5,a5,0xa
    800008ec:	07b2                	slli	a5,a5,0xc
  pte_t* l2_pte = &pagetable[PX(2, va)];
    800008ee:	01e4d693          	srli	a3,s1,0x1e
  if(!(*l2_pte & PTE_V) || (*l2_pte & (PTE_R|PTE_W|PTE_X))) {
    800008f2:	068e                	slli	a3,a3,0x3
    800008f4:	00d90533          	add	a0,s2,a3
    800008f8:	6114                	ld	a3,0(a0)
    800008fa:	00f6f593          	andi	a1,a3,15
    800008fe:	4605                	li	a2,1
    80000900:	00c58c63          	beq	a1,a2,80000918 <walkaddr+0x68>
  return pa + (va & (PGSIZE - 1));
    80000904:	14d2                	slli	s1,s1,0x34
    80000906:	90d1                	srli	s1,s1,0x34
    80000908:	00f48533          	add	a0,s1,a5
}
    8000090c:	60e2                	ld	ra,24(sp)
    8000090e:	6442                	ld	s0,16(sp)
    80000910:	64a2                	ld	s1,8(sp)
    80000912:	6902                	ld	s2,0(sp)
    80000914:	6105                	addi	sp,sp,32
    80000916:	8082                	ret
      pagetable_t l1_table = (pagetable_t)PTE2PA(*l2_pte);
    80000918:	82a9                	srli	a3,a3,0xa
    8000091a:	06b2                	slli	a3,a3,0xc
      if(&l1_table[PX(1, va)] == pte) { // It's an L1 PTE
    8000091c:	0154d613          	srli	a2,s1,0x15
    80000920:	1ff67613          	andi	a2,a2,511
    80000924:	060e                	slli	a2,a2,0x3
    80000926:	96b2                	add	a3,a3,a2
    80000928:	fcd71ee3          	bne	a4,a3,80000904 <walkaddr+0x54>
          return pa + (va & (SUPERPGSIZE - 1));
    8000092c:	02b49713          	slli	a4,s1,0x2b
    80000930:	932d                	srli	a4,a4,0x2b
    80000932:	00f70533          	add	a0,a4,a5
    80000936:	bfd9                	j	8000090c <walkaddr+0x5c>
    return 0;
    80000938:	4501                	li	a0,0
    8000093a:	bfc9                	j	8000090c <walkaddr+0x5c>

000000008000093c <mappages>:

// Create PTEs for virtual addresses starting at va that refer to
// physical addresses starting at pa. va and size MUST be page-aligned.
int
mappages(pagetable_t pagetable, uint64 va, uint64 size, uint64 pa, int perm)
{
    8000093c:	715d                	addi	sp,sp,-80
    8000093e:	e486                	sd	ra,72(sp)
    80000940:	e0a2                	sd	s0,64(sp)
    80000942:	0880                	addi	s0,sp,80
  uint64 a;
  pte_t *pte;

  if (size == 0)
    80000944:	ce39                	beqz	a2,800009a2 <mappages+0x66>
    80000946:	ec56                	sd	s5,24(sp)
    80000948:	e85a                	sd	s6,16(sp)
    8000094a:	8aaa                	mv	s5,a0
    8000094c:	8b3a                	mv	s6,a4
    panic("mappages: size is 0");
  
  // 确保 va 和 size 都是页面大小的倍数。
  // 虽然调用者应该保证，但在这里检查更安全。
  if (va % PGSIZE != 0 || size % PGSIZE != 0)
    8000094e:	00b667b3          	or	a5,a2,a1
    80000952:	17d2                	slli	a5,a5,0x34
    80000954:	e7a5                	bnez	a5,800009bc <mappages+0x80>
    80000956:	f84a                	sd	s2,48(sp)
    80000958:	f44e                	sd	s3,40(sp)
    8000095a:	f052                	sd	s4,32(sp)
    8000095c:	e45e                	sd	s7,8(sp)
    panic("mappages: va or size not page-aligned");

  // 使用一个清晰的 for 循环，避免 off-by-one 错误
  for(a = va; a < va + size; a += PGSIZE, pa += PGSIZE){
    8000095e:	00b609b3          	add	s3,a2,a1
    80000962:	892e                	mv	s2,a1
    80000964:	40b68a33          	sub	s4,a3,a1
    80000968:	6b85                	lui	s7,0x1
    if(*pte & PTE_V)
      panic("mappages: remap"); // 尝试重新映射
    *pte = PA2PTE(pa) | perm | PTE_V;
  }

  return 0;
    8000096a:	4501                	li	a0,0
  for(a = va; a < va + size; a += PGSIZE, pa += PGSIZE){
    8000096c:	0735fb63          	bgeu	a1,s3,800009e2 <mappages+0xa6>
    80000970:	fc26                	sd	s1,56(sp)
    80000972:	012a04b3          	add	s1,s4,s2
    if((pte = walk(pagetable, a, 1)) == 0)
    80000976:	4605                	li	a2,1
    80000978:	85ca                	mv	a1,s2
    8000097a:	8556                	mv	a0,s5
    8000097c:	e83ff0ef          	jal	800007fe <walk>
    80000980:	cd39                	beqz	a0,800009de <mappages+0xa2>
    if(*pte & PTE_V)
    80000982:	611c                	ld	a5,0(a0)
    80000984:	8b85                	andi	a5,a5,1
    80000986:	e7b1                	bnez	a5,800009d2 <mappages+0x96>
    *pte = PA2PTE(pa) | perm | PTE_V;
    80000988:	80b1                	srli	s1,s1,0xc
    8000098a:	04aa                	slli	s1,s1,0xa
    8000098c:	0164e4b3          	or	s1,s1,s6
    80000990:	0014e493          	ori	s1,s1,1
    80000994:	e104                	sd	s1,0(a0)
  for(a = va; a < va + size; a += PGSIZE, pa += PGSIZE){
    80000996:	995e                	add	s2,s2,s7
    80000998:	fd396de3          	bltu	s2,s3,80000972 <mappages+0x36>
  return 0;
    8000099c:	4501                	li	a0,0
    8000099e:	74e2                	ld	s1,56(sp)
    800009a0:	a089                	j	800009e2 <mappages+0xa6>
    800009a2:	fc26                	sd	s1,56(sp)
    800009a4:	f84a                	sd	s2,48(sp)
    800009a6:	f44e                	sd	s3,40(sp)
    800009a8:	f052                	sd	s4,32(sp)
    800009aa:	ec56                	sd	s5,24(sp)
    800009ac:	e85a                	sd	s6,16(sp)
    800009ae:	e45e                	sd	s7,8(sp)
    panic("mappages: size is 0");
    800009b0:	00008517          	auipc	a0,0x8
    800009b4:	8e850513          	addi	a0,a0,-1816 # 80008298 <etext+0x298>
    800009b8:	1eb050ef          	jal	800063a2 <panic>
    800009bc:	fc26                	sd	s1,56(sp)
    800009be:	f84a                	sd	s2,48(sp)
    800009c0:	f44e                	sd	s3,40(sp)
    800009c2:	f052                	sd	s4,32(sp)
    800009c4:	e45e                	sd	s7,8(sp)
    panic("mappages: va or size not page-aligned");
    800009c6:	00008517          	auipc	a0,0x8
    800009ca:	8ea50513          	addi	a0,a0,-1814 # 800082b0 <etext+0x2b0>
    800009ce:	1d5050ef          	jal	800063a2 <panic>
      panic("mappages: remap"); // 尝试重新映射
    800009d2:	00008517          	auipc	a0,0x8
    800009d6:	90650513          	addi	a0,a0,-1786 # 800082d8 <etext+0x2d8>
    800009da:	1c9050ef          	jal	800063a2 <panic>
      return -1; // kalloc 失败
    800009de:	557d                	li	a0,-1
    800009e0:	74e2                	ld	s1,56(sp)
}
    800009e2:	7942                	ld	s2,48(sp)
    800009e4:	79a2                	ld	s3,40(sp)
    800009e6:	7a02                	ld	s4,32(sp)
    800009e8:	6ae2                	ld	s5,24(sp)
    800009ea:	6b42                	ld	s6,16(sp)
    800009ec:	6ba2                	ld	s7,8(sp)
    800009ee:	60a6                	ld	ra,72(sp)
    800009f0:	6406                	ld	s0,64(sp)
    800009f2:	6161                	addi	sp,sp,80
    800009f4:	8082                	ret

00000000800009f6 <kvmmap>:
{
    800009f6:	1141                	addi	sp,sp,-16
    800009f8:	e406                	sd	ra,8(sp)
    800009fa:	e022                	sd	s0,0(sp)
    800009fc:	0800                	addi	s0,sp,16
    800009fe:	87b6                	mv	a5,a3
  if(mappages(kpgtbl, va, sz, pa, perm) != 0)
    80000a00:	86b2                	mv	a3,a2
    80000a02:	863e                	mv	a2,a5
    80000a04:	f39ff0ef          	jal	8000093c <mappages>
    80000a08:	e509                	bnez	a0,80000a12 <kvmmap+0x1c>
}
    80000a0a:	60a2                	ld	ra,8(sp)
    80000a0c:	6402                	ld	s0,0(sp)
    80000a0e:	0141                	addi	sp,sp,16
    80000a10:	8082                	ret
    panic("kvmmap");
    80000a12:	00008517          	auipc	a0,0x8
    80000a16:	8d650513          	addi	a0,a0,-1834 # 800082e8 <etext+0x2e8>
    80000a1a:	189050ef          	jal	800063a2 <panic>

0000000080000a1e <kvmmake>:
{
    80000a1e:	1101                	addi	sp,sp,-32
    80000a20:	ec06                	sd	ra,24(sp)
    80000a22:	e822                	sd	s0,16(sp)
    80000a24:	e426                	sd	s1,8(sp)
    80000a26:	e04a                	sd	s2,0(sp)
    80000a28:	1000                	addi	s0,sp,32
  kpgtbl = (pagetable_t) kalloc();
    80000a2a:	877ff0ef          	jal	800002a0 <kalloc>
    80000a2e:	84aa                	mv	s1,a0
  memset(kpgtbl, 0, PGSIZE);
    80000a30:	6605                	lui	a2,0x1
    80000a32:	4581                	li	a1,0
    80000a34:	a7bff0ef          	jal	800004ae <memset>
  kvmmap(kpgtbl, UART0, UART0, PGSIZE, PTE_R | PTE_W);
    80000a38:	4719                	li	a4,6
    80000a3a:	6685                	lui	a3,0x1
    80000a3c:	10000637          	lui	a2,0x10000
    80000a40:	100005b7          	lui	a1,0x10000
    80000a44:	8526                	mv	a0,s1
    80000a46:	fb1ff0ef          	jal	800009f6 <kvmmap>
  kvmmap(kpgtbl, VIRTIO0, VIRTIO0, PGSIZE, PTE_R | PTE_W);
    80000a4a:	4719                	li	a4,6
    80000a4c:	6685                	lui	a3,0x1
    80000a4e:	10001637          	lui	a2,0x10001
    80000a52:	100015b7          	lui	a1,0x10001
    80000a56:	8526                	mv	a0,s1
    80000a58:	f9fff0ef          	jal	800009f6 <kvmmap>
  kvmmap(kpgtbl, PLIC, PLIC, 0x400000, PTE_R | PTE_W);
    80000a5c:	4719                	li	a4,6
    80000a5e:	004006b7          	lui	a3,0x400
    80000a62:	0c000637          	lui	a2,0xc000
    80000a66:	0c0005b7          	lui	a1,0xc000
    80000a6a:	8526                	mv	a0,s1
    80000a6c:	f8bff0ef          	jal	800009f6 <kvmmap>
  kvmmap(kpgtbl, KERNBASE, KERNBASE, (uint64)etext-KERNBASE, PTE_R | PTE_X);
    80000a70:	00007917          	auipc	s2,0x7
    80000a74:	59090913          	addi	s2,s2,1424 # 80008000 <etext>
    80000a78:	4729                	li	a4,10
    80000a7a:	80007697          	auipc	a3,0x80007
    80000a7e:	58668693          	addi	a3,a3,1414 # 8000 <_entry-0x7fff8000>
    80000a82:	4605                	li	a2,1
    80000a84:	067e                	slli	a2,a2,0x1f
    80000a86:	85b2                	mv	a1,a2
    80000a88:	8526                	mv	a0,s1
    80000a8a:	f6dff0ef          	jal	800009f6 <kvmmap>
  kvmmap(kpgtbl, (uint64)etext, (uint64)etext, PHYSTOP-(uint64)etext, PTE_R | PTE_W);
    80000a8e:	46c5                	li	a3,17
    80000a90:	06ee                	slli	a3,a3,0x1b
    80000a92:	4719                	li	a4,6
    80000a94:	412686b3          	sub	a3,a3,s2
    80000a98:	864a                	mv	a2,s2
    80000a9a:	85ca                	mv	a1,s2
    80000a9c:	8526                	mv	a0,s1
    80000a9e:	f59ff0ef          	jal	800009f6 <kvmmap>
  kvmmap(kpgtbl, TRAMPOLINE, (uint64)trampoline, PGSIZE, PTE_R | PTE_X);
    80000aa2:	4729                	li	a4,10
    80000aa4:	6685                	lui	a3,0x1
    80000aa6:	00006617          	auipc	a2,0x6
    80000aaa:	55a60613          	addi	a2,a2,1370 # 80007000 <_trampoline>
    80000aae:	040005b7          	lui	a1,0x4000
    80000ab2:	15fd                	addi	a1,a1,-1 # 3ffffff <_entry-0x7c000001>
    80000ab4:	05b2                	slli	a1,a1,0xc
    80000ab6:	8526                	mv	a0,s1
    80000ab8:	f3fff0ef          	jal	800009f6 <kvmmap>
  proc_mapstacks(kpgtbl);
    80000abc:	8526                	mv	a0,s1
    80000abe:	381000ef          	jal	8000163e <proc_mapstacks>
}
    80000ac2:	8526                	mv	a0,s1
    80000ac4:	60e2                	ld	ra,24(sp)
    80000ac6:	6442                	ld	s0,16(sp)
    80000ac8:	64a2                	ld	s1,8(sp)
    80000aca:	6902                	ld	s2,0(sp)
    80000acc:	6105                	addi	sp,sp,32
    80000ace:	8082                	ret

0000000080000ad0 <kvminit>:
{
    80000ad0:	1141                	addi	sp,sp,-16
    80000ad2:	e406                	sd	ra,8(sp)
    80000ad4:	e022                	sd	s0,0(sp)
    80000ad6:	0800                	addi	s0,sp,16
  kernel_pagetable = kvmmake();
    80000ad8:	f47ff0ef          	jal	80000a1e <kvmmake>
    80000adc:	0000b797          	auipc	a5,0xb
    80000ae0:	3ea7ba23          	sd	a0,1012(a5) # 8000bed0 <kernel_pagetable>
}
    80000ae4:	60a2                	ld	ra,8(sp)
    80000ae6:	6402                	ld	s0,0(sp)
    80000ae8:	0141                	addi	sp,sp,16
    80000aea:	8082                	ret

0000000080000aec <uvmmap_super>:

// Map a 2MB superpage. va must be 2MB aligned. pa_super must be 2MB aligned.
int
uvmmap_super(pagetable_t pagetable, uint64 va, uint64 pa_super, int perm)
{
    80000aec:	7139                	addi	sp,sp,-64
    80000aee:	fc06                	sd	ra,56(sp)
    80000af0:	f822                	sd	s0,48(sp)
    80000af2:	f426                	sd	s1,40(sp)
    80000af4:	f04a                	sd	s2,32(sp)
    80000af6:	ec4e                	sd	s3,24(sp)
    80000af8:	e852                	sd	s4,16(sp)
    80000afa:	e456                	sd	s5,8(sp)
    80000afc:	0080                	addi	s0,sp,64
  if (va % SUPERPGSIZE != 0 || pa_super % SUPERPGSIZE != 0)
    80000afe:	00c5e7b3          	or	a5,a1,a2
    80000b02:	17ae                	slli	a5,a5,0x2b
    80000b04:	e7a5                	bnez	a5,80000b6c <uvmmap_super+0x80>
    80000b06:	84ae                	mv	s1,a1
    80000b08:	8932                	mv	s2,a2
    80000b0a:	8a36                	mv	s4,a3
    panic("uvmmap_super: unaligned va or pa_super");
  if (va >= MAXVA)
    80000b0c:	57fd                	li	a5,-1
    80000b0e:	83e9                	srli	a5,a5,0x1a
    80000b10:	06b7e463          	bltu	a5,a1,80000b78 <uvmmap_super+0x8c>
    panic("uvmmap_super: va out of bounds");
  
  pte_t *pte_l2 = &pagetable[PX(2, va)];
    80000b14:	01e5d793          	srli	a5,a1,0x1e
    80000b18:	078e                	slli	a5,a5,0x3
    80000b1a:	00f509b3          	add	s3,a0,a5
  pagetable_t l1_table;

  if (*pte_l2 & PTE_V) {
    80000b1e:	0009b503          	ld	a0,0(s3)
    80000b22:	00157793          	andi	a5,a0,1
    80000b26:	c7ad                	beqz	a5,80000b90 <uvmmap_super+0xa4>
    if (*pte_l2 & (PTE_R | PTE_W | PTE_X))
    80000b28:	00e57793          	andi	a5,a0,14
      panic("uvmmap_super: L2 entry is already a 1GB leaf page");
    l1_table = (pagetable_t)PTE2PA(*pte_l2);
    80000b2c:	8129                	srli	a0,a0,0xa
    80000b2e:	00c51a93          	slli	s5,a0,0xc
    if (*pte_l2 & (PTE_R | PTE_W | PTE_X))
    80000b32:	eba9                	bnez	a5,80000b84 <uvmmap_super+0x98>
    if ((l1_table = (pagetable_t)kalloc()) == 0) return -1;
    memset(l1_table, 0, PGSIZE);
    *pte_l2 = PA2PTE((uint64)l1_table) | PTE_V;
  }

  pte_t *l1_pte = &l1_table[PX(1, va)];
    80000b34:	80d5                	srli	s1,s1,0x15
    80000b36:	1ff4f493          	andi	s1,s1,511
    80000b3a:	048e                	slli	s1,s1,0x3
    80000b3c:	009a8533          	add	a0,s5,s1
  if (*l1_pte & PTE_V) panic("uvmmap_super: L1 PTE is already in use");
    80000b40:	611c                	ld	a5,0(a0)
    80000b42:	8b85                	andi	a5,a5,1
    80000b44:	e7b5                	bnez	a5,80000bb0 <uvmmap_super+0xc4>
  
  *l1_pte = PA2PTE(pa_super) | perm | PTE_V;
    80000b46:	00c95913          	srli	s2,s2,0xc
    80000b4a:	092a                	slli	s2,s2,0xa
    80000b4c:	01496933          	or	s2,s2,s4
    80000b50:	00196913          	ori	s2,s2,1
    80000b54:	01253023          	sd	s2,0(a0)
  return 0;
    80000b58:	4501                	li	a0,0
}
    80000b5a:	70e2                	ld	ra,56(sp)
    80000b5c:	7442                	ld	s0,48(sp)
    80000b5e:	74a2                	ld	s1,40(sp)
    80000b60:	7902                	ld	s2,32(sp)
    80000b62:	69e2                	ld	s3,24(sp)
    80000b64:	6a42                	ld	s4,16(sp)
    80000b66:	6aa2                	ld	s5,8(sp)
    80000b68:	6121                	addi	sp,sp,64
    80000b6a:	8082                	ret
    panic("uvmmap_super: unaligned va or pa_super");
    80000b6c:	00007517          	auipc	a0,0x7
    80000b70:	78450513          	addi	a0,a0,1924 # 800082f0 <etext+0x2f0>
    80000b74:	02f050ef          	jal	800063a2 <panic>
    panic("uvmmap_super: va out of bounds");
    80000b78:	00007517          	auipc	a0,0x7
    80000b7c:	7a050513          	addi	a0,a0,1952 # 80008318 <etext+0x318>
    80000b80:	023050ef          	jal	800063a2 <panic>
      panic("uvmmap_super: L2 entry is already a 1GB leaf page");
    80000b84:	00007517          	auipc	a0,0x7
    80000b88:	7b450513          	addi	a0,a0,1972 # 80008338 <etext+0x338>
    80000b8c:	017050ef          	jal	800063a2 <panic>
    if ((l1_table = (pagetable_t)kalloc()) == 0) return -1;
    80000b90:	f10ff0ef          	jal	800002a0 <kalloc>
    80000b94:	8aaa                	mv	s5,a0
    80000b96:	c11d                	beqz	a0,80000bbc <uvmmap_super+0xd0>
    memset(l1_table, 0, PGSIZE);
    80000b98:	6605                	lui	a2,0x1
    80000b9a:	4581                	li	a1,0
    80000b9c:	913ff0ef          	jal	800004ae <memset>
    *pte_l2 = PA2PTE((uint64)l1_table) | PTE_V;
    80000ba0:	00cad793          	srli	a5,s5,0xc
    80000ba4:	07aa                	slli	a5,a5,0xa
    80000ba6:	0017e793          	ori	a5,a5,1
    80000baa:	00f9b023          	sd	a5,0(s3)
    80000bae:	b759                	j	80000b34 <uvmmap_super+0x48>
  if (*l1_pte & PTE_V) panic("uvmmap_super: L1 PTE is already in use");
    80000bb0:	00007517          	auipc	a0,0x7
    80000bb4:	7c050513          	addi	a0,a0,1984 # 80008370 <etext+0x370>
    80000bb8:	7ea050ef          	jal	800063a2 <panic>
    if ((l1_table = (pagetable_t)kalloc()) == 0) return -1;
    80000bbc:	557d                	li	a0,-1
    80000bbe:	bf71                	j	80000b5a <uvmmap_super+0x6e>

0000000080000bc0 <uvmunmap>:
// Remove mappings starting from va. va must be
// page-aligned. The mappings must exist.
// Optionally free the physical memory.
void
uvmunmap(pagetable_t pagetable, uint64 va, uint64 size, int do_free)
{
    80000bc0:	715d                	addi	sp,sp,-80
    80000bc2:	e486                	sd	ra,72(sp)
    80000bc4:	e0a2                	sd	s0,64(sp)
    80000bc6:	0880                	addi	s0,sp,80
  if((va % PGSIZE) != 0) panic("uvmunmap: va not page-aligned");
    80000bc8:	03459793          	slli	a5,a1,0x34
    80000bcc:	efb9                	bnez	a5,80000c2a <uvmunmap+0x6a>
    80000bce:	fc26                	sd	s1,56(sp)
    80000bd0:	f44e                	sd	s3,40(sp)
    80000bd2:	f052                	sd	s4,32(sp)
    80000bd4:	89aa                	mv	s3,a0
    80000bd6:	84ae                	mv	s1,a1
    80000bd8:	8a36                	mv	s4,a3
  if(size == 0) return;
    80000bda:	c229                	beqz	a2,80000c1c <uvmunmap+0x5c>
    80000bdc:	f84a                	sd	s2,48(sp)
    
  uint64 end_va = va + size;
    80000bde:	00c58933          	add	s2,a1,a2

  for(uint64 a = va; a < end_va; ){
    80000be2:	1325f763          	bgeu	a1,s2,80000d10 <uvmunmap+0x150>
    80000be6:	ec56                	sd	s5,24(sp)
    80000be8:	e85a                	sd	s6,16(sp)
    80000bea:	e45e                	sd	s7,8(sp)
    pte_t *l2_pte = &pagetable[PX(2, a)];
    if(!(*l2_pte & PTE_V) || (*l2_pte & (PTE_R|PTE_W|PTE_X))) {
    80000bec:	4a85                	li	s5,1
      a = GIGAROUNDUP(a+1);
    80000bee:	40000bb7          	lui	s7,0x40000
    80000bf2:	c0000b37          	lui	s6,0xc0000
    pte_t *l2_pte = &pagetable[PX(2, a)];
    80000bf6:	01e4d793          	srli	a5,s1,0x1e
    80000bfa:	1ff7f793          	andi	a5,a5,511
    if(!(*l2_pte & PTE_V) || (*l2_pte & (PTE_R|PTE_W|PTE_X))) {
    80000bfe:	078e                	slli	a5,a5,0x3
    80000c00:	97ce                	add	a5,a5,s3
    80000c02:	639c                	ld	a5,0(a5)
    80000c04:	00f7f713          	andi	a4,a5,15
    80000c08:	03570f63          	beq	a4,s5,80000c46 <uvmunmap+0x86>
      a = GIGAROUNDUP(a+1);
    80000c0c:	94de                	add	s1,s1,s7
    80000c0e:	0164f4b3          	and	s1,s1,s6
      if (a == 0) break;
    80000c12:	ece1                	bnez	s1,80000cea <uvmunmap+0x12a>
    80000c14:	7942                	ld	s2,48(sp)
    80000c16:	6ae2                	ld	s5,24(sp)
    80000c18:	6b42                	ld	s6,16(sp)
    80000c1a:	6ba2                	ld	s7,8(sp)
    80000c1c:	74e2                	ld	s1,56(sp)
    80000c1e:	79a2                	ld	s3,40(sp)
    80000c20:	7a02                	ld	s4,32(sp)
        *pte = 0;
      }
      a += PGSIZE;
    }
  }
}
    80000c22:	60a6                	ld	ra,72(sp)
    80000c24:	6406                	ld	s0,64(sp)
    80000c26:	6161                	addi	sp,sp,80
    80000c28:	8082                	ret
    80000c2a:	fc26                	sd	s1,56(sp)
    80000c2c:	f84a                	sd	s2,48(sp)
    80000c2e:	f44e                	sd	s3,40(sp)
    80000c30:	f052                	sd	s4,32(sp)
    80000c32:	ec56                	sd	s5,24(sp)
    80000c34:	e85a                	sd	s6,16(sp)
    80000c36:	e45e                	sd	s7,8(sp)
    80000c38:	e062                	sd	s8,0(sp)
  if((va % PGSIZE) != 0) panic("uvmunmap: va not page-aligned");
    80000c3a:	00007517          	auipc	a0,0x7
    80000c3e:	75e50513          	addi	a0,a0,1886 # 80008398 <etext+0x398>
    80000c42:	760050ef          	jal	800063a2 <panic>
    80000c46:	e062                	sd	s8,0(sp)
    pagetable_t l1_table = (pagetable_t)PTE2PA(*l2_pte);
    80000c48:	00a7dc13          	srli	s8,a5,0xa
    80000c4c:	0c32                	slli	s8,s8,0xc
    pte_t *l1_pte = &l1_table[PX(1, a)];
    80000c4e:	0154d793          	srli	a5,s1,0x15
    80000c52:	1ff7f793          	andi	a5,a5,511
    80000c56:	078e                	slli	a5,a5,0x3
    80000c58:	9c3e                	add	s8,s8,a5
    if(!(*l1_pte & PTE_V)) {
    80000c5a:	000c3503          	ld	a0,0(s8)
    80000c5e:	00157793          	andi	a5,a0,1
    80000c62:	e385                	bnez	a5,80000c82 <uvmunmap+0xc2>
      a = SUPERPGROUNDUP(a+1);
    80000c64:	002007b7          	lui	a5,0x200
    80000c68:	97a6                	add	a5,a5,s1
    80000c6a:	ffe004b7          	lui	s1,0xffe00
    80000c6e:	8cfd                	and	s1,s1,a5
      if (a == 0) break;
    80000c70:	e499                	bnez	s1,80000c7e <uvmunmap+0xbe>
    80000c72:	7942                	ld	s2,48(sp)
    80000c74:	6ae2                	ld	s5,24(sp)
    80000c76:	6b42                	ld	s6,16(sp)
    80000c78:	6ba2                	ld	s7,8(sp)
    80000c7a:	6c02                	ld	s8,0(sp)
    80000c7c:	b745                	j	80000c1c <uvmunmap+0x5c>
    80000c7e:	6c02                	ld	s8,0(sp)
    80000c80:	a0ad                	j	80000cea <uvmunmap+0x12a>
    if(*l1_pte & (PTE_R|PTE_W|PTE_X)) { // Superpage leaf
    80000c82:	00e57793          	andi	a5,a0,14
    80000c86:	cb85                	beqz	a5,80000cb6 <uvmunmap+0xf6>
      if (a % SUPERPGSIZE != 0) panic("uvmunmap: unaligned superpage unmap");
    80000c88:	02b49793          	slli	a5,s1,0x2b
    80000c8c:	eb91                	bnez	a5,80000ca0 <uvmunmap+0xe0>
      if (do_free) superfree((void*)PTE2PA(*l1_pte));
    80000c8e:	000a1f63          	bnez	s4,80000cac <uvmunmap+0xec>
      *l1_pte = 0;
    80000c92:	000c3023          	sd	zero,0(s8)
      a += SUPERPGSIZE;
    80000c96:	002007b7          	lui	a5,0x200
    80000c9a:	94be                	add	s1,s1,a5
    80000c9c:	6c02                	ld	s8,0(sp)
    80000c9e:	a0b1                	j	80000cea <uvmunmap+0x12a>
      if (a % SUPERPGSIZE != 0) panic("uvmunmap: unaligned superpage unmap");
    80000ca0:	00007517          	auipc	a0,0x7
    80000ca4:	71850513          	addi	a0,a0,1816 # 800083b8 <etext+0x3b8>
    80000ca8:	6fa050ef          	jal	800063a2 <panic>
      if (do_free) superfree((void*)PTE2PA(*l1_pte));
    80000cac:	8129                	srli	a0,a0,0xa
    80000cae:	0532                	slli	a0,a0,0xc
    80000cb0:	f56ff0ef          	jal	80000406 <superfree>
    80000cb4:	bff9                	j	80000c92 <uvmunmap+0xd2>
      pagetable_t l0_table = (pagetable_t)PTE2PA(*l1_pte);
    80000cb6:	00a55c13          	srli	s8,a0,0xa
    80000cba:	0c32                	slli	s8,s8,0xc
      pte_t *pte = &l0_table[PX(0, a)];
    80000cbc:	00c4d793          	srli	a5,s1,0xc
    80000cc0:	1ff7f793          	andi	a5,a5,511
    80000cc4:	078e                	slli	a5,a5,0x3
    80000cc6:	9c3e                	add	s8,s8,a5
      if(*pte & PTE_V) {
    80000cc8:	000c3783          	ld	a5,0(s8)
    80000ccc:	0017f713          	andi	a4,a5,1
    80000cd0:	cb11                	beqz	a4,80000ce4 <uvmunmap+0x124>
        if(PTE_FLAGS(*pte) == PTE_V) panic("uvmunmap: L0 pte is intermediate");
    80000cd2:	3ff7f713          	andi	a4,a5,1023
    80000cd6:	4685                	li	a3,1
    80000cd8:	02d70063          	beq	a4,a3,80000cf8 <uvmunmap+0x138>
        if(do_free) kfree((void*)PTE2PA(*pte));
    80000cdc:	020a1463          	bnez	s4,80000d04 <uvmunmap+0x144>
        *pte = 0;
    80000ce0:	000c3023          	sd	zero,0(s8)
      a += PGSIZE;
    80000ce4:	6785                	lui	a5,0x1
    80000ce6:	94be                	add	s1,s1,a5
    80000ce8:	6c02                	ld	s8,0(sp)
  for(uint64 a = va; a < end_va; ){
    80000cea:	f124e6e3          	bltu	s1,s2,80000bf6 <uvmunmap+0x36>
    80000cee:	7942                	ld	s2,48(sp)
    80000cf0:	6ae2                	ld	s5,24(sp)
    80000cf2:	6b42                	ld	s6,16(sp)
    80000cf4:	6ba2                	ld	s7,8(sp)
    80000cf6:	b71d                	j	80000c1c <uvmunmap+0x5c>
        if(PTE_FLAGS(*pte) == PTE_V) panic("uvmunmap: L0 pte is intermediate");
    80000cf8:	00007517          	auipc	a0,0x7
    80000cfc:	6e850513          	addi	a0,a0,1768 # 800083e0 <etext+0x3e0>
    80000d00:	6a2050ef          	jal	800063a2 <panic>
        if(do_free) kfree((void*)PTE2PA(*pte));
    80000d04:	83a9                	srli	a5,a5,0xa
    80000d06:	00c79513          	slli	a0,a5,0xc
    80000d0a:	cdcff0ef          	jal	800001e6 <kfree>
    80000d0e:	bfc9                	j	80000ce0 <uvmunmap+0x120>
    80000d10:	7942                	ld	s2,48(sp)
    80000d12:	b729                	j	80000c1c <uvmunmap+0x5c>

0000000080000d14 <uvmcreate>:

// create an empty user page table.
pagetable_t
uvmcreate()
{
    80000d14:	1101                	addi	sp,sp,-32
    80000d16:	ec06                	sd	ra,24(sp)
    80000d18:	e822                	sd	s0,16(sp)
    80000d1a:	e426                	sd	s1,8(sp)
    80000d1c:	1000                	addi	s0,sp,32
  pagetable_t pagetable;
  pagetable = (pagetable_t) kalloc();
    80000d1e:	d82ff0ef          	jal	800002a0 <kalloc>
    80000d22:	84aa                	mv	s1,a0
  if(pagetable == 0) return 0;
    80000d24:	c509                	beqz	a0,80000d2e <uvmcreate+0x1a>
  memset(pagetable, 0, PGSIZE);
    80000d26:	6605                	lui	a2,0x1
    80000d28:	4581                	li	a1,0
    80000d2a:	f84ff0ef          	jal	800004ae <memset>
  return pagetable;
}
    80000d2e:	8526                	mv	a0,s1
    80000d30:	60e2                	ld	ra,24(sp)
    80000d32:	6442                	ld	s0,16(sp)
    80000d34:	64a2                	ld	s1,8(sp)
    80000d36:	6105                	addi	sp,sp,32
    80000d38:	8082                	ret

0000000080000d3a <uvmfirst>:

// Load the user initcode into address 0 of pagetable.
void
uvmfirst(pagetable_t pagetable, uchar *src, uint sz)
{
    80000d3a:	7179                	addi	sp,sp,-48
    80000d3c:	f406                	sd	ra,40(sp)
    80000d3e:	f022                	sd	s0,32(sp)
    80000d40:	ec26                	sd	s1,24(sp)
    80000d42:	e84a                	sd	s2,16(sp)
    80000d44:	e44e                	sd	s3,8(sp)
    80000d46:	e052                	sd	s4,0(sp)
    80000d48:	1800                	addi	s0,sp,48
  char *mem;
  if(sz >= PGSIZE) panic("uvmfirst: more than a page");
    80000d4a:	6785                	lui	a5,0x1
    80000d4c:	04f67063          	bgeu	a2,a5,80000d8c <uvmfirst+0x52>
    80000d50:	8a2a                	mv	s4,a0
    80000d52:	89ae                	mv	s3,a1
    80000d54:	84b2                	mv	s1,a2
  mem = kalloc();
    80000d56:	d4aff0ef          	jal	800002a0 <kalloc>
    80000d5a:	892a                	mv	s2,a0
  memset(mem, 0, PGSIZE);
    80000d5c:	6605                	lui	a2,0x1
    80000d5e:	4581                	li	a1,0
    80000d60:	f4eff0ef          	jal	800004ae <memset>
  mappages(pagetable, 0, PGSIZE, (uint64)mem, PTE_W|PTE_R|PTE_X|PTE_U);
    80000d64:	4779                	li	a4,30
    80000d66:	86ca                	mv	a3,s2
    80000d68:	6605                	lui	a2,0x1
    80000d6a:	4581                	li	a1,0
    80000d6c:	8552                	mv	a0,s4
    80000d6e:	bcfff0ef          	jal	8000093c <mappages>
  memmove(mem, src, sz);
    80000d72:	8626                	mv	a2,s1
    80000d74:	85ce                	mv	a1,s3
    80000d76:	854a                	mv	a0,s2
    80000d78:	f92ff0ef          	jal	8000050a <memmove>
}
    80000d7c:	70a2                	ld	ra,40(sp)
    80000d7e:	7402                	ld	s0,32(sp)
    80000d80:	64e2                	ld	s1,24(sp)
    80000d82:	6942                	ld	s2,16(sp)
    80000d84:	69a2                	ld	s3,8(sp)
    80000d86:	6a02                	ld	s4,0(sp)
    80000d88:	6145                	addi	sp,sp,48
    80000d8a:	8082                	ret
  if(sz >= PGSIZE) panic("uvmfirst: more than a page");
    80000d8c:	00007517          	auipc	a0,0x7
    80000d90:	67c50513          	addi	a0,a0,1660 # 80008408 <etext+0x408>
    80000d94:	60e050ef          	jal	800063a2 <panic>

0000000080000d98 <uvmdealloc>:
}

// Deallocate user pages to bring the process size from oldsz to newsz.
uint64
uvmdealloc(pagetable_t pagetable, uint64 oldsz, uint64 newsz)
{
    80000d98:	872a                	mv	a4,a0
    80000d9a:	852e                	mv	a0,a1
  if(newsz >= oldsz) return oldsz;
    80000d9c:	00b66363          	bltu	a2,a1,80000da2 <uvmdealloc+0xa>
  uvmunmap(pagetable, PGROUNDUP(newsz), PGROUNDUP(oldsz) - PGROUNDUP(newsz), 1);
  return newsz;
}
    80000da0:	8082                	ret
{
    80000da2:	1101                	addi	sp,sp,-32
    80000da4:	ec06                	sd	ra,24(sp)
    80000da6:	e822                	sd	s0,16(sp)
    80000da8:	e426                	sd	s1,8(sp)
    80000daa:	1000                	addi	s0,sp,32
    80000dac:	84b2                	mv	s1,a2
  uvmunmap(pagetable, PGROUNDUP(newsz), PGROUNDUP(oldsz) - PGROUNDUP(newsz), 1);
    80000dae:	6785                	lui	a5,0x1
    80000db0:	17fd                	addi	a5,a5,-1 # fff <_entry-0x7ffff001>
    80000db2:	00f605b3          	add	a1,a2,a5
    80000db6:	76fd                	lui	a3,0xfffff
    80000db8:	8df5                	and	a1,a1,a3
    80000dba:	97aa                	add	a5,a5,a0
    80000dbc:	8ff5                	and	a5,a5,a3
    80000dbe:	4685                	li	a3,1
    80000dc0:	40b78633          	sub	a2,a5,a1
    80000dc4:	853a                	mv	a0,a4
    80000dc6:	dfbff0ef          	jal	80000bc0 <uvmunmap>
  return newsz;
    80000dca:	8526                	mv	a0,s1
}
    80000dcc:	60e2                	ld	ra,24(sp)
    80000dce:	6442                	ld	s0,16(sp)
    80000dd0:	64a2                	ld	s1,8(sp)
    80000dd2:	6105                	addi	sp,sp,32
    80000dd4:	8082                	ret

0000000080000dd6 <uvmalloc>:
  if(newsz < oldsz) return oldsz;
    80000dd6:	08b66f63          	bltu	a2,a1,80000e74 <uvmalloc+0x9e>
{
    80000dda:	7139                	addi	sp,sp,-64
    80000ddc:	fc06                	sd	ra,56(sp)
    80000dde:	f822                	sd	s0,48(sp)
    80000de0:	ec4e                	sd	s3,24(sp)
    80000de2:	e852                	sd	s4,16(sp)
    80000de4:	e456                	sd	s5,8(sp)
    80000de6:	0080                	addi	s0,sp,64
    80000de8:	8aaa                	mv	s5,a0
    80000dea:	8a32                	mv	s4,a2
  oldsz = PGROUNDUP(oldsz);
    80000dec:	6785                	lui	a5,0x1
    80000dee:	17fd                	addi	a5,a5,-1 # fff <_entry-0x7ffff001>
    80000df0:	95be                	add	a1,a1,a5
    80000df2:	77fd                	lui	a5,0xfffff
    80000df4:	00f5f9b3          	and	s3,a1,a5
  for(a = oldsz; a < newsz; a += PGSIZE){
    80000df8:	08c9f063          	bgeu	s3,a2,80000e78 <uvmalloc+0xa2>
    80000dfc:	f426                	sd	s1,40(sp)
    80000dfe:	f04a                	sd	s2,32(sp)
    80000e00:	e05a                	sd	s6,0(sp)
    80000e02:	894e                	mv	s2,s3
    if(mappages(pagetable, a, PGSIZE, (uint64)mem, PTE_R|PTE_U|xperm) != 0){
    80000e04:	0126eb13          	ori	s6,a3,18
    mem = kalloc();
    80000e08:	c98ff0ef          	jal	800002a0 <kalloc>
    80000e0c:	84aa                	mv	s1,a0
    if(mem == 0){
    80000e0e:	c515                	beqz	a0,80000e3a <uvmalloc+0x64>
    memset(mem, 0, PGSIZE);
    80000e10:	6605                	lui	a2,0x1
    80000e12:	4581                	li	a1,0
    80000e14:	e9aff0ef          	jal	800004ae <memset>
    if(mappages(pagetable, a, PGSIZE, (uint64)mem, PTE_R|PTE_U|xperm) != 0){
    80000e18:	875a                	mv	a4,s6
    80000e1a:	86a6                	mv	a3,s1
    80000e1c:	6605                	lui	a2,0x1
    80000e1e:	85ca                	mv	a1,s2
    80000e20:	8556                	mv	a0,s5
    80000e22:	b1bff0ef          	jal	8000093c <mappages>
    80000e26:	e915                	bnez	a0,80000e5a <uvmalloc+0x84>
  for(a = oldsz; a < newsz; a += PGSIZE){
    80000e28:	6785                	lui	a5,0x1
    80000e2a:	993e                	add	s2,s2,a5
    80000e2c:	fd496ee3          	bltu	s2,s4,80000e08 <uvmalloc+0x32>
  return newsz;
    80000e30:	8552                	mv	a0,s4
    80000e32:	74a2                	ld	s1,40(sp)
    80000e34:	7902                	ld	s2,32(sp)
    80000e36:	6b02                	ld	s6,0(sp)
    80000e38:	a811                	j	80000e4c <uvmalloc+0x76>
      uvmdealloc(pagetable, a, oldsz);
    80000e3a:	864e                	mv	a2,s3
    80000e3c:	85ca                	mv	a1,s2
    80000e3e:	8556                	mv	a0,s5
    80000e40:	f59ff0ef          	jal	80000d98 <uvmdealloc>
      return 0;
    80000e44:	4501                	li	a0,0
    80000e46:	74a2                	ld	s1,40(sp)
    80000e48:	7902                	ld	s2,32(sp)
    80000e4a:	6b02                	ld	s6,0(sp)
}
    80000e4c:	70e2                	ld	ra,56(sp)
    80000e4e:	7442                	ld	s0,48(sp)
    80000e50:	69e2                	ld	s3,24(sp)
    80000e52:	6a42                	ld	s4,16(sp)
    80000e54:	6aa2                	ld	s5,8(sp)
    80000e56:	6121                	addi	sp,sp,64
    80000e58:	8082                	ret
      kfree(mem);
    80000e5a:	8526                	mv	a0,s1
    80000e5c:	b8aff0ef          	jal	800001e6 <kfree>
      uvmdealloc(pagetable, a, oldsz);
    80000e60:	864e                	mv	a2,s3
    80000e62:	85ca                	mv	a1,s2
    80000e64:	8556                	mv	a0,s5
    80000e66:	f33ff0ef          	jal	80000d98 <uvmdealloc>
      return 0;
    80000e6a:	4501                	li	a0,0
    80000e6c:	74a2                	ld	s1,40(sp)
    80000e6e:	7902                	ld	s2,32(sp)
    80000e70:	6b02                	ld	s6,0(sp)
    80000e72:	bfe9                	j	80000e4c <uvmalloc+0x76>
  if(newsz < oldsz) return oldsz;
    80000e74:	852e                	mv	a0,a1
}
    80000e76:	8082                	ret
  return newsz;
    80000e78:	8532                	mv	a0,a2
    80000e7a:	bfc9                	j	80000e4c <uvmalloc+0x76>

0000000080000e7c <freewalk>:

// Recursively free page-table pages.
void
freewalk(pagetable_t pagetable)
{
    80000e7c:	7179                	addi	sp,sp,-48
    80000e7e:	f406                	sd	ra,40(sp)
    80000e80:	f022                	sd	s0,32(sp)
    80000e82:	ec26                	sd	s1,24(sp)
    80000e84:	e84a                	sd	s2,16(sp)
    80000e86:	e44e                	sd	s3,8(sp)
    80000e88:	e052                	sd	s4,0(sp)
    80000e8a:	1800                	addi	s0,sp,48
    80000e8c:	8a2a                	mv	s4,a0
  for(int i = 0; i < 512; i++){
    80000e8e:	84aa                	mv	s1,a0
    80000e90:	6905                	lui	s2,0x1
    80000e92:	992a                	add	s2,s2,a0
    pte_t pte = pagetable[i];
    if((pte & PTE_V) && (pte & (PTE_R|PTE_W|PTE_X)) == 0){
    80000e94:	4985                	li	s3,1
    80000e96:	a819                	j	80000eac <freewalk+0x30>
      uint64 child = PTE2PA(pte);
    80000e98:	83a9                	srli	a5,a5,0xa
      freewalk((pagetable_t)child);
    80000e9a:	00c79513          	slli	a0,a5,0xc
    80000e9e:	fdfff0ef          	jal	80000e7c <freewalk>
      pagetable[i] = 0;
    80000ea2:	0004b023          	sd	zero,0(s1) # ffffffffffe00000 <end+0xffffffff7fdda108>
  for(int i = 0; i < 512; i++){
    80000ea6:	04a1                	addi	s1,s1,8
    80000ea8:	01248f63          	beq	s1,s2,80000ec6 <freewalk+0x4a>
    pte_t pte = pagetable[i];
    80000eac:	609c                	ld	a5,0(s1)
    if((pte & PTE_V) && (pte & (PTE_R|PTE_W|PTE_X)) == 0){
    80000eae:	00f7f713          	andi	a4,a5,15
    80000eb2:	ff3703e3          	beq	a4,s3,80000e98 <freewalk+0x1c>
    } else if(pte & PTE_V){
    80000eb6:	8b85                	andi	a5,a5,1
    80000eb8:	d7fd                	beqz	a5,80000ea6 <freewalk+0x2a>
      panic("freewalk: leaf found");
    80000eba:	00007517          	auipc	a0,0x7
    80000ebe:	56e50513          	addi	a0,a0,1390 # 80008428 <etext+0x428>
    80000ec2:	4e0050ef          	jal	800063a2 <panic>
    }
  }
  kfree((void*)pagetable);
    80000ec6:	8552                	mv	a0,s4
    80000ec8:	b1eff0ef          	jal	800001e6 <kfree>
}
    80000ecc:	70a2                	ld	ra,40(sp)
    80000ece:	7402                	ld	s0,32(sp)
    80000ed0:	64e2                	ld	s1,24(sp)
    80000ed2:	6942                	ld	s2,16(sp)
    80000ed4:	69a2                	ld	s3,8(sp)
    80000ed6:	6a02                	ld	s4,0(sp)
    80000ed8:	6145                	addi	sp,sp,48
    80000eda:	8082                	ret

0000000080000edc <uvmfree>:

// Free user memory pages, then free page-table pages.
void
uvmfree(pagetable_t pagetable, uint64 sz)
{
    80000edc:	7139                	addi	sp,sp,-64
    80000ede:	fc06                	sd	ra,56(sp)
    80000ee0:	f822                	sd	s0,48(sp)
    80000ee2:	f426                	sd	s1,40(sp)
    80000ee4:	f04a                	sd	s2,32(sp)
    80000ee6:	ec4e                	sd	s3,24(sp)
    80000ee8:	e852                	sd	s4,16(sp)
    80000eea:	e456                	sd	s5,8(sp)
    80000eec:	0080                	addi	s0,sp,64
    80000eee:	8aaa                	mv	s5,a0
  if(sz > 0)
    80000ef0:	e591                	bnez	a1,80000efc <uvmfree+0x20>
    uvmunmap(pagetable, 0, PGROUNDUP(sz), 1);
  
  for(int i=0; i<512; i++){
    80000ef2:	84d6                	mv	s1,s5
    80000ef4:	6985                	lui	s3,0x1
    80000ef6:	99d6                	add	s3,s3,s5
      pte_t pte = pagetable[i];
      if((pte & PTE_V) && !(pte & (PTE_R|PTE_W|PTE_X))){
    80000ef8:	4a05                	li	s4,1
    80000efa:	a025                	j	80000f22 <uvmfree+0x46>
    uvmunmap(pagetable, 0, PGROUNDUP(sz), 1);
    80000efc:	6785                	lui	a5,0x1
    80000efe:	17fd                	addi	a5,a5,-1 # fff <_entry-0x7ffff001>
    80000f00:	95be                	add	a1,a1,a5
    80000f02:	4685                	li	a3,1
    80000f04:	767d                	lui	a2,0xfffff
    80000f06:	8e6d                	and	a2,a2,a1
    80000f08:	4581                	li	a1,0
    80000f0a:	cb7ff0ef          	jal	80000bc0 <uvmunmap>
    80000f0e:	b7d5                	j	80000ef2 <uvmfree+0x16>
          freewalk((pagetable_t)PTE2PA(pte));
    80000f10:	8129                	srli	a0,a0,0xa
    80000f12:	0532                	slli	a0,a0,0xc
    80000f14:	f69ff0ef          	jal	80000e7c <freewalk>
      } else if (pte & PTE_V) {
          panic("uvmfree: L2 leaf found");
      }
      pagetable[i] = 0;
    80000f18:	00093023          	sd	zero,0(s2) # 1000 <_entry-0x7ffff000>
  for(int i=0; i<512; i++){
    80000f1c:	04a1                	addi	s1,s1,8
    80000f1e:	03348063          	beq	s1,s3,80000f3e <uvmfree+0x62>
      pte_t pte = pagetable[i];
    80000f22:	8926                	mv	s2,s1
    80000f24:	6088                	ld	a0,0(s1)
      if((pte & PTE_V) && !(pte & (PTE_R|PTE_W|PTE_X))){
    80000f26:	00f57793          	andi	a5,a0,15
    80000f2a:	ff4783e3          	beq	a5,s4,80000f10 <uvmfree+0x34>
      } else if (pte & PTE_V) {
    80000f2e:	8905                	andi	a0,a0,1
    80000f30:	d565                	beqz	a0,80000f18 <uvmfree+0x3c>
          panic("uvmfree: L2 leaf found");
    80000f32:	00007517          	auipc	a0,0x7
    80000f36:	50e50513          	addi	a0,a0,1294 # 80008440 <etext+0x440>
    80000f3a:	468050ef          	jal	800063a2 <panic>
  }
  kfree((void*)pagetable);
    80000f3e:	8556                	mv	a0,s5
    80000f40:	aa6ff0ef          	jal	800001e6 <kfree>
}
    80000f44:	70e2                	ld	ra,56(sp)
    80000f46:	7442                	ld	s0,48(sp)
    80000f48:	74a2                	ld	s1,40(sp)
    80000f4a:	7902                	ld	s2,32(sp)
    80000f4c:	69e2                	ld	s3,24(sp)
    80000f4e:	6a42                	ld	s4,16(sp)
    80000f50:	6aa2                	ld	s5,8(sp)
    80000f52:	6121                	addi	sp,sp,64
    80000f54:	8082                	ret

0000000080000f56 <uvmcopy>:
{
  pte_t *pte;
  uint64 pa, i;
  uint flags;

  for(i = 0; i < sz; ){
    80000f56:	10060c63          	beqz	a2,8000106e <uvmcopy+0x118>
{
    80000f5a:	715d                	addi	sp,sp,-80
    80000f5c:	e486                	sd	ra,72(sp)
    80000f5e:	e0a2                	sd	s0,64(sp)
    80000f60:	fc26                	sd	s1,56(sp)
    80000f62:	f84a                	sd	s2,48(sp)
    80000f64:	f44e                	sd	s3,40(sp)
    80000f66:	f052                	sd	s4,32(sp)
    80000f68:	ec56                	sd	s5,24(sp)
    80000f6a:	e85a                	sd	s6,16(sp)
    80000f6c:	e45e                	sd	s7,8(sp)
    80000f6e:	0880                	addi	s0,sp,80
    80000f70:	8a2a                	mv	s4,a0
    80000f72:	8b2e                	mv	s6,a1
    80000f74:	8ab2                	mv	s5,a2
  for(i = 0; i < sz; ){
    80000f76:	4481                	li	s1,0
    80000f78:	a899                	j	80000fce <uvmcopy+0x78>
    if((pte = walk(old, i, 0)) == 0)
      panic("uvmcopy: pte should exist");
    80000f7a:	00007517          	auipc	a0,0x7
    80000f7e:	4de50513          	addi	a0,a0,1246 # 80008458 <etext+0x458>
    80000f82:	420050ef          	jal	800063a2 <panic>
    if((*pte & PTE_V) == 0)
      panic("uvmcopy: page not present");
    80000f86:	00007517          	auipc	a0,0x7
    80000f8a:	4f250513          	addi	a0,a0,1266 # 80008478 <etext+0x478>
    80000f8e:	414050ef          	jal	800063a2 <panic>
    flags = PTE_FLAGS(*pte);

    if(*pte & (PTE_R|PTE_W|PTE_X)) { // Leaf PTE
        // Check if it's a superpage by checking if the PTE is an L1 entry
        pte_t* l2_pte = &old[PX(2, i)];
        if(!(*l2_pte & PTE_V)) panic("uvmcopy: l2 pte invalid");
    80000f92:	00007517          	auipc	a0,0x7
    80000f96:	50650513          	addi	a0,a0,1286 # 80008498 <etext+0x498>
    80000f9a:	408050ef          	jal	800063a2 <panic>
        if(&l1_table[PX(1, i)] == pte) { // It's an L1 PTE (superpage)
            char* mem = superalloc();
            if(mem == 0) goto err;
            memmove(mem, (char*)pa, SUPERPGSIZE);
            if(uvmmap_super(new, i, (uint64)mem, flags) != 0){
                superfree(mem);
    80000f9e:	855e                	mv	a0,s7
    80000fa0:	c66ff0ef          	jal	80000406 <superfree>
                goto err;
    80000fa4:	a04d                	j	80001046 <uvmcopy+0xf0>
            continue;
        }
    }
    
    // It's a 4KB page
    char* mem = kalloc();
    80000fa6:	afaff0ef          	jal	800002a0 <kalloc>
    80000faa:	8baa                	mv	s7,a0
    if(mem == 0) goto err;
    80000fac:	cd49                	beqz	a0,80001046 <uvmcopy+0xf0>
    memmove(mem, (char*)pa, PGSIZE);
    80000fae:	6605                	lui	a2,0x1
    80000fb0:	85ca                	mv	a1,s2
    80000fb2:	d58ff0ef          	jal	8000050a <memmove>
    if(mappages(new, i, PGSIZE, (uint64)mem, flags) != 0){
    80000fb6:	874e                	mv	a4,s3
    80000fb8:	86de                	mv	a3,s7
    80000fba:	6605                	lui	a2,0x1
    80000fbc:	85a6                	mv	a1,s1
    80000fbe:	855a                	mv	a0,s6
    80000fc0:	97dff0ef          	jal	8000093c <mappages>
    80000fc4:	ed35                	bnez	a0,80001040 <uvmcopy+0xea>
      kfree(mem);
      goto err;
    }
    i += PGSIZE;
    80000fc6:	6785                	lui	a5,0x1
    80000fc8:	94be                	add	s1,s1,a5
  for(i = 0; i < sz; ){
    80000fca:	0b54f063          	bgeu	s1,s5,8000106a <uvmcopy+0x114>
    if((pte = walk(old, i, 0)) == 0)
    80000fce:	4601                	li	a2,0
    80000fd0:	85a6                	mv	a1,s1
    80000fd2:	8552                	mv	a0,s4
    80000fd4:	82bff0ef          	jal	800007fe <walk>
    80000fd8:	d14d                	beqz	a0,80000f7a <uvmcopy+0x24>
    if((*pte & PTE_V) == 0)
    80000fda:	611c                	ld	a5,0(a0)
    80000fdc:	0017f713          	andi	a4,a5,1
    80000fe0:	d35d                	beqz	a4,80000f86 <uvmcopy+0x30>
    pa = PTE2PA(*pte);
    80000fe2:	00a7d913          	srli	s2,a5,0xa
    80000fe6:	0932                	slli	s2,s2,0xc
    flags = PTE_FLAGS(*pte);
    80000fe8:	3ff7f993          	andi	s3,a5,1023
    if(*pte & (PTE_R|PTE_W|PTE_X)) { // Leaf PTE
    80000fec:	8bb9                	andi	a5,a5,14
    80000fee:	dfc5                	beqz	a5,80000fa6 <uvmcopy+0x50>
        pte_t* l2_pte = &old[PX(2, i)];
    80000ff0:	01e4d793          	srli	a5,s1,0x1e
    80000ff4:	1ff7f793          	andi	a5,a5,511
        if(!(*l2_pte & PTE_V)) panic("uvmcopy: l2 pte invalid");
    80000ff8:	078e                	slli	a5,a5,0x3
    80000ffa:	97d2                	add	a5,a5,s4
    80000ffc:	639c                	ld	a5,0(a5)
    80000ffe:	0017f713          	andi	a4,a5,1
    80001002:	db41                	beqz	a4,80000f92 <uvmcopy+0x3c>
        pagetable_t l1_table = (pagetable_t)PTE2PA(*l2_pte);
    80001004:	83a9                	srli	a5,a5,0xa
    80001006:	07b2                	slli	a5,a5,0xc
        if(&l1_table[PX(1, i)] == pte) { // It's an L1 PTE (superpage)
    80001008:	0154d713          	srli	a4,s1,0x15
    8000100c:	1ff77713          	andi	a4,a4,511
    80001010:	070e                	slli	a4,a4,0x3
    80001012:	97ba                	add	a5,a5,a4
    80001014:	f8f519e3          	bne	a0,a5,80000fa6 <uvmcopy+0x50>
            char* mem = superalloc();
    80001018:	b64ff0ef          	jal	8000037c <superalloc>
    8000101c:	8baa                	mv	s7,a0
            if(mem == 0) goto err;
    8000101e:	c505                	beqz	a0,80001046 <uvmcopy+0xf0>
            memmove(mem, (char*)pa, SUPERPGSIZE);
    80001020:	00200637          	lui	a2,0x200
    80001024:	85ca                	mv	a1,s2
    80001026:	ce4ff0ef          	jal	8000050a <memmove>
            if(uvmmap_super(new, i, (uint64)mem, flags) != 0){
    8000102a:	86ce                	mv	a3,s3
    8000102c:	865e                	mv	a2,s7
    8000102e:	85a6                	mv	a1,s1
    80001030:	855a                	mv	a0,s6
    80001032:	abbff0ef          	jal	80000aec <uvmmap_super>
    80001036:	f525                	bnez	a0,80000f9e <uvmcopy+0x48>
            i += SUPERPGSIZE;
    80001038:	002007b7          	lui	a5,0x200
    8000103c:	94be                	add	s1,s1,a5
            continue;
    8000103e:	b771                	j	80000fca <uvmcopy+0x74>
      kfree(mem);
    80001040:	855e                	mv	a0,s7
    80001042:	9a4ff0ef          	jal	800001e6 <kfree>
  }
  return 0;

 err:
  uvmunmap(new, 0, i, 1);
    80001046:	4685                	li	a3,1
    80001048:	8626                	mv	a2,s1
    8000104a:	4581                	li	a1,0
    8000104c:	855a                	mv	a0,s6
    8000104e:	b73ff0ef          	jal	80000bc0 <uvmunmap>
  return -1;
    80001052:	557d                	li	a0,-1
}
    80001054:	60a6                	ld	ra,72(sp)
    80001056:	6406                	ld	s0,64(sp)
    80001058:	74e2                	ld	s1,56(sp)
    8000105a:	7942                	ld	s2,48(sp)
    8000105c:	79a2                	ld	s3,40(sp)
    8000105e:	7a02                	ld	s4,32(sp)
    80001060:	6ae2                	ld	s5,24(sp)
    80001062:	6b42                	ld	s6,16(sp)
    80001064:	6ba2                	ld	s7,8(sp)
    80001066:	6161                	addi	sp,sp,80
    80001068:	8082                	ret
  return 0;
    8000106a:	4501                	li	a0,0
    8000106c:	b7e5                	j	80001054 <uvmcopy+0xfe>
    8000106e:	4501                	li	a0,0
}
    80001070:	8082                	ret

0000000080001072 <uvmclear>:

// mark a PTE invalid for user access.
void
uvmclear(pagetable_t pagetable, uint64 va)
{
    80001072:	1141                	addi	sp,sp,-16
    80001074:	e406                	sd	ra,8(sp)
    80001076:	e022                	sd	s0,0(sp)
    80001078:	0800                	addi	s0,sp,16
  pte_t *pte = walk(pagetable, va, 0);
    8000107a:	4601                	li	a2,0
    8000107c:	f82ff0ef          	jal	800007fe <walk>
  if(pte == 0) panic("uvmclear: walk failed");
    80001080:	c901                	beqz	a0,80001090 <uvmclear+0x1e>
  *pte &= ~PTE_U;
    80001082:	611c                	ld	a5,0(a0)
    80001084:	9bbd                	andi	a5,a5,-17
    80001086:	e11c                	sd	a5,0(a0)
}
    80001088:	60a2                	ld	ra,8(sp)
    8000108a:	6402                	ld	s0,0(sp)
    8000108c:	0141                	addi	sp,sp,16
    8000108e:	8082                	ret
  if(pte == 0) panic("uvmclear: walk failed");
    80001090:	00007517          	auipc	a0,0x7
    80001094:	42050513          	addi	a0,a0,1056 # 800084b0 <etext+0x4b0>
    80001098:	30a050ef          	jal	800063a2 <panic>

000000008000109c <copyout>:
{
  uint64 n_this_iter, va_current_page_base, phys_base_of_current_page;
  uint64 size_of_current_page;

  // Initial comprehensive check for dstva and len validity
  if (dstva >= MAXVA || dstva + len < dstva || dstva + len > MAXVA) {
    8000109c:	57fd                	li	a5,-1
    8000109e:	83e9                	srli	a5,a5,0x1a
    800010a0:	10b7e363          	bltu	a5,a1,800011a6 <copyout+0x10a>
{
    800010a4:	7159                	addi	sp,sp,-112
    800010a6:	f486                	sd	ra,104(sp)
    800010a8:	f0a2                	sd	s0,96(sp)
    800010aa:	e8ca                	sd	s2,80(sp)
    800010ac:	e4ce                	sd	s3,72(sp)
    800010ae:	e0d2                	sd	s4,64(sp)
    800010b0:	f85a                	sd	s6,48(sp)
    800010b2:	1880                	addi	s0,sp,112
    800010b4:	8b2a                	mv	s6,a0
    800010b6:	892e                	mv	s2,a1
    800010b8:	8a32                	mv	s4,a2
    800010ba:	89b6                	mv	s3,a3
  if (dstva >= MAXVA || dstva + len < dstva || dstva + len > MAXVA) {
    800010bc:	00d58733          	add	a4,a1,a3
    800010c0:	0eb76563          	bltu	a4,a1,800011aa <copyout+0x10e>
    800010c4:	4785                	li	a5,1
    800010c6:	179a                	slli	a5,a5,0x26
    800010c8:	0ee7e363          	bltu	a5,a4,800011ae <copyout+0x112>
      return -1;
  }

  while(len > 0){
    800010cc:	c285                	beqz	a3,800010ec <copyout+0x50>
    800010ce:	eca6                	sd	s1,88(sp)
    800010d0:	fc56                	sd	s5,56(sp)
    800010d2:	f45e                	sd	s7,40(sp)
    800010d4:	f062                	sd	s8,32(sp)
    800010d6:	ec66                	sd	s9,24(sp)
    800010d8:	e86a                	sd	s10,16(sp)
    800010da:	e46e                	sd	s11,8(sp)
    // If dstva hits MAXVA and len > 0, it's an error (should be caught by initial check mostly).
    if (dstva >= MAXVA) return -1; // Added safety check within loop for MAXVA boundary


    size_of_current_page = PGSIZE; // Default to 4KB
    va_current_page_base = PGROUNDDOWN(dstva);
    800010dc:	7cfd                	lui	s9,0xfffff

    pte_t *l2_pte = &pagetable[PX(2, dstva)];
    if(!(*l2_pte & PTE_V) || (*l2_pte & (PTE_R|PTE_W|PTE_X))) { // L2 not valid or is 1GB leaf (error for user)
    800010de:	4c05                	li	s8,1
        va_current_page_base = SUPERPGROUNDDOWN(dstva);
        phys_base_of_current_page = PTE2PA(*l1_pte);
    } else { // L1 PTE points to L0 table
    cout_try_4k_walk:; // Label for fallback to 4KB page walk
        pte_t* pte_l0 = walk(pagetable, dstva, 0); 
        if(pte_l0 == 0 || !(*pte_l0 & PTE_V) || !(*pte_l0 & PTE_U) || !(*pte_l0 & PTE_W)) return -1;
    800010e0:	4d55                	li	s10,21
        if(!(*l1_pte & PTE_U) || !(*l1_pte & PTE_W)) return -1; // Check user access AND writable
    800010e2:	4dd1                	li	s11,20
    if (dstva >= MAXVA) return -1; // Added safety check within loop for MAXVA boundary
    800010e4:	5bfd                	li	s7,-1
    800010e6:	01abdb93          	srli	s7,s7,0x1a
    800010ea:	a0b9                	j	80001138 <copyout+0x9c>

    len -= n_this_iter;
    src += n_this_iter;
    dstva += n_this_iter; // Correctly advance dstva by amount copied
  }
  return 0;
    800010ec:	4501                	li	a0,0
    800010ee:	a065                	j	80001196 <copyout+0xfa>
        pte_t* pte_l0 = walk(pagetable, dstva, 0); 
    800010f0:	4601                	li	a2,0
    800010f2:	85ca                	mv	a1,s2
    800010f4:	855a                	mv	a0,s6
    800010f6:	f08ff0ef          	jal	800007fe <walk>
        if(pte_l0 == 0 || !(*pte_l0 & PTE_V) || !(*pte_l0 & PTE_U) || !(*pte_l0 & PTE_W)) return -1;
    800010fa:	cd71                	beqz	a0,800011d6 <copyout+0x13a>
    800010fc:	6108                	ld	a0,0(a0)
    800010fe:	01557793          	andi	a5,a0,21
    80001102:	0fa79363          	bne	a5,s10,800011e8 <copyout+0x14c>
        phys_base_of_current_page = PTE2PA(*pte_l0);
    80001106:	8129                	srli	a0,a0,0xa
    80001108:	0532                	slli	a0,a0,0xc
    size_of_current_page = PGSIZE; // Default to 4KB
    8000110a:	6485                	lui	s1,0x1
    n_this_iter = size_of_current_page - (dstva - va_current_page_base); 
    8000110c:	94d6                	add	s1,s1,s5
    8000110e:	412484b3          	sub	s1,s1,s2
    if(n_this_iter > len)
    80001112:	0099f363          	bgeu	s3,s1,80001118 <copyout+0x7c>
    80001116:	84ce                	mv	s1,s3
    memmove((void *)(phys_base_of_current_page + (dstva - va_current_page_base)), src, n_this_iter);
    80001118:	954a                	add	a0,a0,s2
    8000111a:	0004861b          	sext.w	a2,s1
    8000111e:	85d2                	mv	a1,s4
    80001120:	41550533          	sub	a0,a0,s5
    80001124:	be6ff0ef          	jal	8000050a <memmove>
    len -= n_this_iter;
    80001128:	409989b3          	sub	s3,s3,s1
    src += n_this_iter;
    8000112c:	9a26                	add	s4,s4,s1
    dstva += n_this_iter; // Correctly advance dstva by amount copied
    8000112e:	9926                	add	s2,s2,s1
  while(len > 0){
    80001130:	04098b63          	beqz	s3,80001186 <copyout+0xea>
    if (dstva >= MAXVA) return -1; // Added safety check within loop for MAXVA boundary
    80001134:	072bef63          	bltu	s7,s2,800011b2 <copyout+0x116>
    va_current_page_base = PGROUNDDOWN(dstva);
    80001138:	01997ab3          	and	s5,s2,s9
    pte_t *l2_pte = &pagetable[PX(2, dstva)];
    8000113c:	01e95793          	srli	a5,s2,0x1e
    if(!(*l2_pte & PTE_V) || (*l2_pte & (PTE_R|PTE_W|PTE_X))) { // L2 not valid or is 1GB leaf (error for user)
    80001140:	078e                	slli	a5,a5,0x3
    80001142:	97da                	add	a5,a5,s6
    80001144:	639c                	ld	a5,0(a5)
    80001146:	00f7f713          	andi	a4,a5,15
    8000114a:	fb8713e3          	bne	a4,s8,800010f0 <copyout+0x54>
    pagetable_t l1_table = (pagetable_t)PTE2PA(*l2_pte);
    8000114e:	83a9                	srli	a5,a5,0xa
    80001150:	07b2                	slli	a5,a5,0xc
    pte_t *l1_pte = &l1_table[PX(1, dstva)];
    80001152:	01595713          	srli	a4,s2,0x15
    80001156:	1ff77713          	andi	a4,a4,511
    if(!(*l1_pte & PTE_V)) { // L1 entry not valid, try 4KB walk
    8000115a:	070e                	slli	a4,a4,0x3
    8000115c:	97ba                	add	a5,a5,a4
    8000115e:	6388                	ld	a0,0(a5)
    80001160:	00157793          	andi	a5,a0,1
    80001164:	d7d1                	beqz	a5,800010f0 <copyout+0x54>
    if(*l1_pte & (PTE_R|PTE_W|PTE_X)) { // L1 PTE is a Superpage leaf
    80001166:	00e57793          	andi	a5,a0,14
    8000116a:	d3d9                	beqz	a5,800010f0 <copyout+0x54>
        if(!(*l1_pte & PTE_U) || !(*l1_pte & PTE_W)) return -1; // Check user access AND writable
    8000116c:	01457793          	andi	a5,a0,20
    80001170:	05b79a63          	bne	a5,s11,800011c4 <copyout+0x128>
        va_current_page_base = SUPERPGROUNDDOWN(dstva);
    80001174:	ffe007b7          	lui	a5,0xffe00
    80001178:	00f97ab3          	and	s5,s2,a5
        phys_base_of_current_page = PTE2PA(*l1_pte);
    8000117c:	8129                	srli	a0,a0,0xa
    8000117e:	0532                	slli	a0,a0,0xc
        size_of_current_page = SUPERPGSIZE;
    80001180:	002004b7          	lui	s1,0x200
    80001184:	b761                	j	8000110c <copyout+0x70>
  return 0;
    80001186:	4501                	li	a0,0
    80001188:	64e6                	ld	s1,88(sp)
    8000118a:	7ae2                	ld	s5,56(sp)
    8000118c:	7ba2                	ld	s7,40(sp)
    8000118e:	7c02                	ld	s8,32(sp)
    80001190:	6ce2                	ld	s9,24(sp)
    80001192:	6d42                	ld	s10,16(sp)
    80001194:	6da2                	ld	s11,8(sp)
}
    80001196:	70a6                	ld	ra,104(sp)
    80001198:	7406                	ld	s0,96(sp)
    8000119a:	6946                	ld	s2,80(sp)
    8000119c:	69a6                	ld	s3,72(sp)
    8000119e:	6a06                	ld	s4,64(sp)
    800011a0:	7b42                	ld	s6,48(sp)
    800011a2:	6165                	addi	sp,sp,112
    800011a4:	8082                	ret
      return -1;
    800011a6:	557d                	li	a0,-1
}
    800011a8:	8082                	ret
      return -1;
    800011aa:	557d                	li	a0,-1
    800011ac:	b7ed                	j	80001196 <copyout+0xfa>
    800011ae:	557d                	li	a0,-1
    800011b0:	b7dd                	j	80001196 <copyout+0xfa>
    if (dstva >= MAXVA) return -1; // Added safety check within loop for MAXVA boundary
    800011b2:	557d                	li	a0,-1
    800011b4:	64e6                	ld	s1,88(sp)
    800011b6:	7ae2                	ld	s5,56(sp)
    800011b8:	7ba2                	ld	s7,40(sp)
    800011ba:	7c02                	ld	s8,32(sp)
    800011bc:	6ce2                	ld	s9,24(sp)
    800011be:	6d42                	ld	s10,16(sp)
    800011c0:	6da2                	ld	s11,8(sp)
    800011c2:	bfd1                	j	80001196 <copyout+0xfa>
        if(!(*l1_pte & PTE_U) || !(*l1_pte & PTE_W)) return -1; // Check user access AND writable
    800011c4:	557d                	li	a0,-1
    800011c6:	64e6                	ld	s1,88(sp)
    800011c8:	7ae2                	ld	s5,56(sp)
    800011ca:	7ba2                	ld	s7,40(sp)
    800011cc:	7c02                	ld	s8,32(sp)
    800011ce:	6ce2                	ld	s9,24(sp)
    800011d0:	6d42                	ld	s10,16(sp)
    800011d2:	6da2                	ld	s11,8(sp)
    800011d4:	b7c9                	j	80001196 <copyout+0xfa>
        if(pte_l0 == 0 || !(*pte_l0 & PTE_V) || !(*pte_l0 & PTE_U) || !(*pte_l0 & PTE_W)) return -1;
    800011d6:	557d                	li	a0,-1
    800011d8:	64e6                	ld	s1,88(sp)
    800011da:	7ae2                	ld	s5,56(sp)
    800011dc:	7ba2                	ld	s7,40(sp)
    800011de:	7c02                	ld	s8,32(sp)
    800011e0:	6ce2                	ld	s9,24(sp)
    800011e2:	6d42                	ld	s10,16(sp)
    800011e4:	6da2                	ld	s11,8(sp)
    800011e6:	bf45                	j	80001196 <copyout+0xfa>
    800011e8:	557d                	li	a0,-1
    800011ea:	64e6                	ld	s1,88(sp)
    800011ec:	7ae2                	ld	s5,56(sp)
    800011ee:	7ba2                	ld	s7,40(sp)
    800011f0:	7c02                	ld	s8,32(sp)
    800011f2:	6ce2                	ld	s9,24(sp)
    800011f4:	6d42                	ld	s10,16(sp)
    800011f6:	6da2                	ld	s11,8(sp)
    800011f8:	bf79                	j	80001196 <copyout+0xfa>

00000000800011fa <copyin>:
copyin(pagetable_t pagetable, char *dst, uint64 srcva, uint64 len)
{
  uint64 n_this_iter, va_current_page_base, phys_base_of_current_page;
  uint64 size_of_current_page;

  if (srcva >= MAXVA || srcva + len < srcva || srcva + len > MAXVA) {
    800011fa:	57fd                	li	a5,-1
    800011fc:	83e9                	srli	a5,a5,0x1a
    800011fe:	10c7e163          	bltu	a5,a2,80001300 <copyin+0x106>
{
    80001202:	7159                	addi	sp,sp,-112
    80001204:	f486                	sd	ra,104(sp)
    80001206:	f0a2                	sd	s0,96(sp)
    80001208:	e8ca                	sd	s2,80(sp)
    8000120a:	e4ce                	sd	s3,72(sp)
    8000120c:	e0d2                	sd	s4,64(sp)
    8000120e:	f85a                	sd	s6,48(sp)
    80001210:	1880                	addi	s0,sp,112
    80001212:	8b2a                	mv	s6,a0
    80001214:	8a2e                	mv	s4,a1
    80001216:	8932                	mv	s2,a2
    80001218:	89b6                	mv	s3,a3
  if (srcva >= MAXVA || srcva + len < srcva || srcva + len > MAXVA) {
    8000121a:	00d60733          	add	a4,a2,a3
    8000121e:	0ec76363          	bltu	a4,a2,80001304 <copyin+0x10a>
    80001222:	4785                	li	a5,1
    80001224:	179a                	slli	a5,a5,0x26
    80001226:	0ee7e163          	bltu	a5,a4,80001308 <copyin+0x10e>
      return -1;
  }

  while(len > 0){
    8000122a:	c28d                	beqz	a3,8000124c <copyin+0x52>
    8000122c:	eca6                	sd	s1,88(sp)
    8000122e:	fc56                	sd	s5,56(sp)
    80001230:	f45e                	sd	s7,40(sp)
    80001232:	f062                	sd	s8,32(sp)
    80001234:	ec66                	sd	s9,24(sp)
    80001236:	e86a                	sd	s10,16(sp)
    80001238:	e46e                	sd	s11,8(sp)
    if (srcva >= MAXVA) return -1; // Added safety check within loop for MAXVA boundary

    size_of_current_page = PGSIZE; // Default to 4KB
    va_current_page_base = PGROUNDDOWN(srcva);
    8000123a:	7cfd                	lui	s9,0xfffff

    pte_t *l2_pte = &pagetable[PX(2, srcva)];
    if(!(*l2_pte & PTE_V) || (*l2_pte & (PTE_R|PTE_W|PTE_X))) { 
    8000123c:	4c05                	li	s8,1
        va_current_page_base = SUPERPGROUNDDOWN(srcva);
        phys_base_of_current_page = PTE2PA(*l1_pte);
    } else { // L1 PTE points to L0 table
    cin_try_4k_walk:;
        pte_t* pte_l0 = walk(pagetable, srcva, 0); 
        if(pte_l0 == 0 || !(*pte_l0 & PTE_V) || !(*pte_l0 & PTE_U)) return -1;
    8000123e:	4d45                	li	s10,17
        va_current_page_base = SUPERPGROUNDDOWN(srcva);
    80001240:	ffe00db7          	lui	s11,0xffe00
    if (srcva >= MAXVA) return -1; // Added safety check within loop for MAXVA boundary
    80001244:	5bfd                	li	s7,-1
    80001246:	01abdb93          	srli	s7,s7,0x1a
    8000124a:	a0b9                	j	80001298 <copyin+0x9e>

    len -= n_this_iter;
    dst += n_this_iter;
    srcva += n_this_iter; // Correctly advance srcva by amount copied
  }
  return 0;
    8000124c:	4501                	li	a0,0
    8000124e:	a04d                	j	800012f0 <copyin+0xf6>
        pte_t* pte_l0 = walk(pagetable, srcva, 0); 
    80001250:	4601                	li	a2,0
    80001252:	85ca                	mv	a1,s2
    80001254:	855a                	mv	a0,s6
    80001256:	da8ff0ef          	jal	800007fe <walk>
        if(pte_l0 == 0 || !(*pte_l0 & PTE_V) || !(*pte_l0 & PTE_U)) return -1;
    8000125a:	c979                	beqz	a0,80001330 <copyin+0x136>
    8000125c:	610c                	ld	a1,0(a0)
    8000125e:	0115f793          	andi	a5,a1,17
    80001262:	0fa79063          	bne	a5,s10,80001342 <copyin+0x148>
        phys_base_of_current_page = PTE2PA(*pte_l0);
    80001266:	81a9                	srli	a1,a1,0xa
    80001268:	05b2                	slli	a1,a1,0xc
    size_of_current_page = PGSIZE; // Default to 4KB
    8000126a:	6485                	lui	s1,0x1
    n_this_iter = size_of_current_page - (srcva - va_current_page_base); 
    8000126c:	94d6                	add	s1,s1,s5
    8000126e:	412484b3          	sub	s1,s1,s2
    if(n_this_iter > len)
    80001272:	0099f363          	bgeu	s3,s1,80001278 <copyin+0x7e>
    80001276:	84ce                	mv	s1,s3
    memmove(dst, (void *)(phys_base_of_current_page + (srcva - va_current_page_base)), n_this_iter);
    80001278:	95ca                	add	a1,a1,s2
    8000127a:	0004861b          	sext.w	a2,s1
    8000127e:	415585b3          	sub	a1,a1,s5
    80001282:	8552                	mv	a0,s4
    80001284:	a86ff0ef          	jal	8000050a <memmove>
    len -= n_this_iter;
    80001288:	409989b3          	sub	s3,s3,s1
    dst += n_this_iter;
    8000128c:	9a26                	add	s4,s4,s1
    srcva += n_this_iter; // Correctly advance srcva by amount copied
    8000128e:	9926                	add	s2,s2,s1
  while(len > 0){
    80001290:	04098863          	beqz	s3,800012e0 <copyin+0xe6>
    if (srcva >= MAXVA) return -1; // Added safety check within loop for MAXVA boundary
    80001294:	072bec63          	bltu	s7,s2,8000130c <copyin+0x112>
    va_current_page_base = PGROUNDDOWN(srcva);
    80001298:	01997ab3          	and	s5,s2,s9
    pte_t *l2_pte = &pagetable[PX(2, srcva)];
    8000129c:	01e95793          	srli	a5,s2,0x1e
    if(!(*l2_pte & PTE_V) || (*l2_pte & (PTE_R|PTE_W|PTE_X))) { 
    800012a0:	078e                	slli	a5,a5,0x3
    800012a2:	97da                	add	a5,a5,s6
    800012a4:	639c                	ld	a5,0(a5)
    800012a6:	00f7f713          	andi	a4,a5,15
    800012aa:	fb8713e3          	bne	a4,s8,80001250 <copyin+0x56>
    pagetable_t l1_table = (pagetable_t)PTE2PA(*l2_pte);
    800012ae:	83a9                	srli	a5,a5,0xa
    800012b0:	07b2                	slli	a5,a5,0xc
    pte_t *l1_pte = &l1_table[PX(1, srcva)];
    800012b2:	01595713          	srli	a4,s2,0x15
    800012b6:	1ff77713          	andi	a4,a4,511
    if(!(*l1_pte & PTE_V)) { 
    800012ba:	070e                	slli	a4,a4,0x3
    800012bc:	97ba                	add	a5,a5,a4
    800012be:	638c                	ld	a1,0(a5)
    800012c0:	0015f793          	andi	a5,a1,1
    800012c4:	d7d1                	beqz	a5,80001250 <copyin+0x56>
    if(*l1_pte & (PTE_R|PTE_W|PTE_X)) { // L1 PTE is a Superpage leaf
    800012c6:	00e5f793          	andi	a5,a1,14
    800012ca:	d3d9                	beqz	a5,80001250 <copyin+0x56>
        if(!(*l1_pte & PTE_U)) return -1; // Check user access
    800012cc:	0105f793          	andi	a5,a1,16
    800012d0:	c7b9                	beqz	a5,8000131e <copyin+0x124>
        va_current_page_base = SUPERPGROUNDDOWN(srcva);
    800012d2:	01b97ab3          	and	s5,s2,s11
        phys_base_of_current_page = PTE2PA(*l1_pte);
    800012d6:	81a9                	srli	a1,a1,0xa
    800012d8:	05b2                	slli	a1,a1,0xc
        size_of_current_page = SUPERPGSIZE;
    800012da:	002004b7          	lui	s1,0x200
    800012de:	b779                	j	8000126c <copyin+0x72>
  return 0;
    800012e0:	4501                	li	a0,0
    800012e2:	64e6                	ld	s1,88(sp)
    800012e4:	7ae2                	ld	s5,56(sp)
    800012e6:	7ba2                	ld	s7,40(sp)
    800012e8:	7c02                	ld	s8,32(sp)
    800012ea:	6ce2                	ld	s9,24(sp)
    800012ec:	6d42                	ld	s10,16(sp)
    800012ee:	6da2                	ld	s11,8(sp)
}
    800012f0:	70a6                	ld	ra,104(sp)
    800012f2:	7406                	ld	s0,96(sp)
    800012f4:	6946                	ld	s2,80(sp)
    800012f6:	69a6                	ld	s3,72(sp)
    800012f8:	6a06                	ld	s4,64(sp)
    800012fa:	7b42                	ld	s6,48(sp)
    800012fc:	6165                	addi	sp,sp,112
    800012fe:	8082                	ret
      return -1;
    80001300:	557d                	li	a0,-1
}
    80001302:	8082                	ret
      return -1;
    80001304:	557d                	li	a0,-1
    80001306:	b7ed                	j	800012f0 <copyin+0xf6>
    80001308:	557d                	li	a0,-1
    8000130a:	b7dd                	j	800012f0 <copyin+0xf6>
    if (srcva >= MAXVA) return -1; // Added safety check within loop for MAXVA boundary
    8000130c:	557d                	li	a0,-1
    8000130e:	64e6                	ld	s1,88(sp)
    80001310:	7ae2                	ld	s5,56(sp)
    80001312:	7ba2                	ld	s7,40(sp)
    80001314:	7c02                	ld	s8,32(sp)
    80001316:	6ce2                	ld	s9,24(sp)
    80001318:	6d42                	ld	s10,16(sp)
    8000131a:	6da2                	ld	s11,8(sp)
    8000131c:	bfd1                	j	800012f0 <copyin+0xf6>
        if(!(*l1_pte & PTE_U)) return -1; // Check user access
    8000131e:	557d                	li	a0,-1
    80001320:	64e6                	ld	s1,88(sp)
    80001322:	7ae2                	ld	s5,56(sp)
    80001324:	7ba2                	ld	s7,40(sp)
    80001326:	7c02                	ld	s8,32(sp)
    80001328:	6ce2                	ld	s9,24(sp)
    8000132a:	6d42                	ld	s10,16(sp)
    8000132c:	6da2                	ld	s11,8(sp)
    8000132e:	b7c9                	j	800012f0 <copyin+0xf6>
        if(pte_l0 == 0 || !(*pte_l0 & PTE_V) || !(*pte_l0 & PTE_U)) return -1;
    80001330:	557d                	li	a0,-1
    80001332:	64e6                	ld	s1,88(sp)
    80001334:	7ae2                	ld	s5,56(sp)
    80001336:	7ba2                	ld	s7,40(sp)
    80001338:	7c02                	ld	s8,32(sp)
    8000133a:	6ce2                	ld	s9,24(sp)
    8000133c:	6d42                	ld	s10,16(sp)
    8000133e:	6da2                	ld	s11,8(sp)
    80001340:	bf45                	j	800012f0 <copyin+0xf6>
    80001342:	557d                	li	a0,-1
    80001344:	64e6                	ld	s1,88(sp)
    80001346:	7ae2                	ld	s5,56(sp)
    80001348:	7ba2                	ld	s7,40(sp)
    8000134a:	7c02                	ld	s8,32(sp)
    8000134c:	6ce2                	ld	s9,24(sp)
    8000134e:	6d42                	ld	s10,16(sp)
    80001350:	6da2                	ld	s11,8(sp)
    80001352:	bf79                	j	800012f0 <copyin+0xf6>

0000000080001354 <copyinstr>:
  uint64 size_of_current_page;
  int got_null = 0;
  char current_char_val; // To store the character value
  
  // Initial comprehensive check for srcva and max_len_arg validity
  if (srcva >= MAXVA) {
    80001354:	57fd                	li	a5,-1
    80001356:	83e9                	srli	a5,a5,0x1a
    80001358:	10c7ec63          	bltu	a5,a2,80001470 <copyinstr+0x11c>
{
    8000135c:	7159                	addi	sp,sp,-112
    8000135e:	f486                	sd	ra,104(sp)
    80001360:	f0a2                	sd	s0,96(sp)
    80001362:	eca6                	sd	s1,88(sp)
    80001364:	e8ca                	sd	s2,80(sp)
    80001366:	e4ce                	sd	s3,72(sp)
    80001368:	fc56                	sd	s5,56(sp)
    8000136a:	1880                	addi	s0,sp,112
    8000136c:	8aaa                	mv	s5,a0
    8000136e:	84ae                	mv	s1,a1
    80001370:	8932                	mv	s2,a2
    80001372:	89b6                	mv	s3,a3
      return -1;
  }
  if (max_len_arg > 0) {
    80001374:	10068063          	beqz	a3,80001474 <copyinstr+0x120>
      if ((srcva + max_len_arg < srcva) || // Overflow
    80001378:	00d60733          	add	a4,a2,a3
    8000137c:	0ec76e63          	bltu	a4,a2,80001478 <copyinstr+0x124>
    80001380:	4785                	li	a5,1
    80001382:	179a                	slli	a5,a5,0x26
    80001384:	0ee7ec63          	bltu	a5,a4,8000147c <copyinstr+0x128>
    80001388:	e0d2                	sd	s4,64(sp)
    8000138a:	f85a                	sd	s6,48(sp)
    8000138c:	f45e                	sd	s7,40(sp)
    8000138e:	f062                	sd	s8,32(sp)
    80001390:	ec66                	sd	s9,24(sp)
    80001392:	e86a                	sd	s10,16(sp)
    80001394:	e46e                	sd	s11,8(sp)
    if (srcva >= MAXVA ) { // Added safety check within loop for MAXVA boundary
        return -1; 
    }

    size_of_current_page = PGSIZE; 
    va_current_page_base = PGROUNDDOWN(srcva);
    80001396:	7c7d                	lui	s8,0xfffff

    // --- Logic to determine phys_base_of_current_page and size_of_current_page ---
    pte_t *l2_pte = &pagetable[PX(2, srcva)];
    if(!(*l2_pte & PTE_V) || (*l2_pte & (PTE_R|PTE_W|PTE_X))) {
    80001398:	4b85                	li	s7,1
        va_current_page_base = SUPERPGROUNDDOWN(srcva);
        phys_base_of_current_page = PTE2PA(*l1_pte);
    } else { // 4KB page path
    cinstr_fallback_4k:;
        pte_t* pte_l0 = walk(pagetable, srcva, 0); 
        if(pte_l0 == 0 || !(*pte_l0 & PTE_V) || !(*pte_l0 & PTE_U)) return -1;
    8000139a:	4cc5                	li	s9,17
    size_of_current_page = PGSIZE; 
    8000139c:	6d05                	lui	s10,0x1
        va_current_page_base = SUPERPGROUNDDOWN(srcva);
    8000139e:	ffe00db7          	lui	s11,0xffe00
    if (srcva >= MAXVA ) { // Added safety check within loop for MAXVA boundary
    800013a2:	5b7d                	li	s6,-1
    800013a4:	01ab5b13          	srli	s6,s6,0x1a
    800013a8:	a8a9                	j	80001402 <copyinstr+0xae>
        pte_t* pte_l0 = walk(pagetable, srcva, 0); 
    800013aa:	4601                	li	a2,0
    800013ac:	85ca                	mv	a1,s2
    800013ae:	8556                	mv	a0,s5
    800013b0:	c4eff0ef          	jal	800007fe <walk>
        if(pte_l0 == 0 || !(*pte_l0 & PTE_V) || !(*pte_l0 & PTE_U)) return -1;
    800013b4:	c965                	beqz	a0,800014a4 <copyinstr+0x150>
    800013b6:	611c                	ld	a5,0(a0)
    800013b8:	0117f713          	andi	a4,a5,17
    800013bc:	0f971d63          	bne	a4,s9,800014b6 <copyinstr+0x162>
        phys_base_of_current_page = PTE2PA(*pte_l0);
    800013c0:	00a7d693          	srli	a3,a5,0xa
    800013c4:	06b2                	slli	a3,a3,0xc
    size_of_current_page = PGSIZE; 
    800013c6:	866a                	mv	a2,s10
        // size_of_current_page remains PGSIZE
        // va_current_page_base is PGROUNDDOWN(srcva)
    }
    // --- End of placeholder ---
    
    n_this_segment = size_of_current_page - (srcva - va_current_page_base);
    800013c8:	9652                	add	a2,a2,s4
    800013ca:	41260633          	sub	a2,a2,s2
    if(n_this_segment > max_len_arg) // Cap segment scan by remaining max_len_arg
    800013ce:	00c9f363          	bgeu	s3,a2,800013d4 <copyinstr+0x80>
    800013d2:	864e                	mv	a2,s3
      n_this_segment = max_len_arg;

    char *pa_char_ptr = (char *)(phys_base_of_current_page + (srcva - va_current_page_base));
    800013d4:	96ca                	add	a3,a3,s2
    800013d6:	414686b3          	sub	a3,a3,s4
    uint64 i; // Bytes to copy from this segment in this inner loop
    for(i = 0; i < n_this_segment; i++){
    800013da:	c605                	beqz	a2,80001402 <copyinstr+0xae>
    800013dc:	4781                	li	a5,0
      current_char_val = pa_char_ptr[i];
    800013de:	00f68733          	add	a4,a3,a5
    800013e2:	00074703          	lbu	a4,0(a4)
      *dst = current_char_val;
    800013e6:	00e48023          	sb	a4,0(s1) # 200000 <_entry-0x7fe00000>
      
      dst++; // Advance kernel destination buffer
    800013ea:	0485                	addi	s1,s1,1

      if(current_char_val == '\0'){
    800013ec:	cf39                	beqz	a4,8000144a <copyinstr+0xf6>
    for(i = 0; i < n_this_segment; i++){
    800013ee:	0785                	addi	a5,a5,1 # ffffffffffe00001 <end+0xffffffff7fdda109>
    800013f0:	fec797e3          	bne	a5,a2,800013de <copyinstr+0x8a>
        bytes_read_in_iter = i + 1; // Read 'i' chars + 1 null.
    } else {
        bytes_read_in_iter = i;     // Read 'i' (which is n_this_segment) non-null chars.
    }

    srcva += bytes_read_in_iter;
    800013f4:	9932                	add	s2,s2,a2
    max_len_arg -= bytes_read_in_iter;
    800013f6:	40c989b3          	sub	s3,s3,a2
  while(got_null == 0 && max_len_arg > 0){
    800013fa:	0c098763          	beqz	s3,800014c8 <copyinstr+0x174>
    if (srcva >= MAXVA ) { // Added safety check within loop for MAXVA boundary
    800013fe:	092b6163          	bltu	s6,s2,80001480 <copyinstr+0x12c>
    va_current_page_base = PGROUNDDOWN(srcva);
    80001402:	01897a33          	and	s4,s2,s8
    pte_t *l2_pte = &pagetable[PX(2, srcva)];
    80001406:	01e95793          	srli	a5,s2,0x1e
    if(!(*l2_pte & PTE_V) || (*l2_pte & (PTE_R|PTE_W|PTE_X))) {
    8000140a:	078e                	slli	a5,a5,0x3
    8000140c:	97d6                	add	a5,a5,s5
    8000140e:	639c                	ld	a5,0(a5)
    80001410:	00f7f713          	andi	a4,a5,15
    80001414:	f9771be3          	bne	a4,s7,800013aa <copyinstr+0x56>
    pagetable_t l1_table = (pagetable_t)PTE2PA(*l2_pte);
    80001418:	83a9                	srli	a5,a5,0xa
    8000141a:	07b2                	slli	a5,a5,0xc
    pte_t *l1_pte = &l1_table[PX(1, srcva)];
    8000141c:	01595713          	srli	a4,s2,0x15
    80001420:	1ff77713          	andi	a4,a4,511
    if(!(*l1_pte & PTE_V)) {
    80001424:	070e                	slli	a4,a4,0x3
    80001426:	97ba                	add	a5,a5,a4
    80001428:	6394                	ld	a3,0(a5)
    8000142a:	0016f793          	andi	a5,a3,1
    8000142e:	dfb5                	beqz	a5,800013aa <copyinstr+0x56>
    if(*l1_pte & (PTE_R|PTE_W|PTE_X)) { // Superpage
    80001430:	00e6f793          	andi	a5,a3,14
    80001434:	dbbd                	beqz	a5,800013aa <copyinstr+0x56>
        if(!(*l1_pte & PTE_U)) return -1;
    80001436:	0106f793          	andi	a5,a3,16
    8000143a:	cfa1                	beqz	a5,80001492 <copyinstr+0x13e>
        va_current_page_base = SUPERPGROUNDDOWN(srcva);
    8000143c:	01b97a33          	and	s4,s2,s11
        phys_base_of_current_page = PTE2PA(*l1_pte);
    80001440:	82a9                	srli	a3,a3,0xa
    80001442:	06b2                	slli	a3,a3,0xc
        size_of_current_page = SUPERPGSIZE;
    80001444:	00200637          	lui	a2,0x200
    80001448:	b741                	j	800013c8 <copyinstr+0x74>
    8000144a:	4785                	li	a5,1

  } // end while

  if(got_null){
    8000144c:	37fd                	addiw	a5,a5,-1
    8000144e:	0007851b          	sext.w	a0,a5
    80001452:	6a06                	ld	s4,64(sp)
    80001454:	7b42                	ld	s6,48(sp)
    80001456:	7ba2                	ld	s7,40(sp)
    80001458:	7c02                	ld	s8,32(sp)
    8000145a:	6ce2                	ld	s9,24(sp)
    8000145c:	6d42                	ld	s10,16(sp)
    8000145e:	6da2                	ld	s11,8(sp)
    return 0; // Success: null terminator found and copied within max_len_arg
  } else {
    // Failure: Either max_len_arg exhausted before null, or an invalid access occurred.
    return -1;
  }
}
    80001460:	70a6                	ld	ra,104(sp)
    80001462:	7406                	ld	s0,96(sp)
    80001464:	64e6                	ld	s1,88(sp)
    80001466:	6946                	ld	s2,80(sp)
    80001468:	69a6                	ld	s3,72(sp)
    8000146a:	7ae2                	ld	s5,56(sp)
    8000146c:	6165                	addi	sp,sp,112
    8000146e:	8082                	ret
      return -1;
    80001470:	557d                	li	a0,-1
}
    80001472:	8082                	ret
      return -1; 
    80001474:	557d                	li	a0,-1
    80001476:	b7ed                	j	80001460 <copyinstr+0x10c>
          return -1;
    80001478:	557d                	li	a0,-1
    8000147a:	b7dd                	j	80001460 <copyinstr+0x10c>
    8000147c:	557d                	li	a0,-1
    8000147e:	b7cd                	j	80001460 <copyinstr+0x10c>
        return -1; 
    80001480:	557d                	li	a0,-1
    80001482:	6a06                	ld	s4,64(sp)
    80001484:	7b42                	ld	s6,48(sp)
    80001486:	7ba2                	ld	s7,40(sp)
    80001488:	7c02                	ld	s8,32(sp)
    8000148a:	6ce2                	ld	s9,24(sp)
    8000148c:	6d42                	ld	s10,16(sp)
    8000148e:	6da2                	ld	s11,8(sp)
    80001490:	bfc1                	j	80001460 <copyinstr+0x10c>
        if(!(*l1_pte & PTE_U)) return -1;
    80001492:	557d                	li	a0,-1
    80001494:	6a06                	ld	s4,64(sp)
    80001496:	7b42                	ld	s6,48(sp)
    80001498:	7ba2                	ld	s7,40(sp)
    8000149a:	7c02                	ld	s8,32(sp)
    8000149c:	6ce2                	ld	s9,24(sp)
    8000149e:	6d42                	ld	s10,16(sp)
    800014a0:	6da2                	ld	s11,8(sp)
    800014a2:	bf7d                	j	80001460 <copyinstr+0x10c>
        if(pte_l0 == 0 || !(*pte_l0 & PTE_V) || !(*pte_l0 & PTE_U)) return -1;
    800014a4:	557d                	li	a0,-1
    800014a6:	6a06                	ld	s4,64(sp)
    800014a8:	7b42                	ld	s6,48(sp)
    800014aa:	7ba2                	ld	s7,40(sp)
    800014ac:	7c02                	ld	s8,32(sp)
    800014ae:	6ce2                	ld	s9,24(sp)
    800014b0:	6d42                	ld	s10,16(sp)
    800014b2:	6da2                	ld	s11,8(sp)
    800014b4:	b775                	j	80001460 <copyinstr+0x10c>
    800014b6:	557d                	li	a0,-1
    800014b8:	6a06                	ld	s4,64(sp)
    800014ba:	7b42                	ld	s6,48(sp)
    800014bc:	7ba2                	ld	s7,40(sp)
    800014be:	7c02                	ld	s8,32(sp)
    800014c0:	6ce2                	ld	s9,24(sp)
    800014c2:	6d42                	ld	s10,16(sp)
    800014c4:	6da2                	ld	s11,8(sp)
    800014c6:	bf69                	j	80001460 <copyinstr+0x10c>
    800014c8:	4781                	li	a5,0
    800014ca:	b749                	j	8000144c <copyinstr+0xf8>

00000000800014cc <vmprint_level>:

void
vmprint_level(pagetable_t pagetable, int level)
{
  // Sv39页表有三级，我们用level 0, 1, 2来代表L2, L1, L0。
  if (level > 2)
    800014cc:	4789                	li	a5,2
    800014ce:	12b7cb63          	blt	a5,a1,80001604 <vmprint_level+0x138>
{
    800014d2:	7119                	addi	sp,sp,-128
    800014d4:	fc86                	sd	ra,120(sp)
    800014d6:	f8a2                	sd	s0,112(sp)
    800014d8:	f4a6                	sd	s1,104(sp)
    800014da:	f0ca                	sd	s2,96(sp)
    800014dc:	ecce                	sd	s3,88(sp)
    800014de:	e8d2                	sd	s4,80(sp)
    800014e0:	e4d6                	sd	s5,72(sp)
    800014e2:	e0da                	sd	s6,64(sp)
    800014e4:	fc5e                	sd	s7,56(sp)
    800014e6:	f862                	sd	s8,48(sp)
    800014e8:	f466                	sd	s9,40(sp)
    800014ea:	f06a                	sd	s10,32(sp)
    800014ec:	ec6e                	sd	s11,24(sp)
    800014ee:	0100                	addi	s0,sp,128
    800014f0:	8aae                	mv	s5,a1
    800014f2:	89aa                	mv	s3,a0
    return;

  // 遍历当前页表中的512个PTE。
  for(int i = 0; i < 512; i++){
    800014f4:	4901                	li	s2,0
        printf(".. "); 
      }
      
      // 打印PTE的索引、PTE本身的值、以及它指向的物理地址。
      uint64 pa = PTE2PA(pte);
      printf("pte %d: pte %ld, pa %ld", i, pte, pa);
    800014f6:	00007b17          	auipc	s6,0x7
    800014fa:	fdab0b13          	addi	s6,s6,-38 # 800084d0 <etext+0x4d0>
        // 是中间PTE，换行并递归到下一级。
        printf("\n");
        vmprint_level((pagetable_t)pa, level + 1);
      } else {
        // 是叶子PTE，它映射一个物理页面。打印它的权限标志。
        printf(" -> flags:");
    800014fe:	00007c97          	auipc	s9,0x7
    80001502:	feac8c93          	addi	s9,s9,-22 # 800084e8 <etext+0x4e8>
        if(pte & PTE_V) printf(" V");
    80001506:	00007c17          	auipc	s8,0x7
    8000150a:	ff2c0c13          	addi	s8,s8,-14 # 800084f8 <etext+0x4f8>
        if(pte & PTE_R) printf(" R");
        if(pte & PTE_W) printf(" W");
        if(pte & PTE_X) printf(" X");
        if(pte & PTE_U) printf(" U");
        printf("\n");
    8000150e:	00007b97          	auipc	s7,0x7
    80001512:	d4ab8b93          	addi	s7,s7,-694 # 80008258 <etext+0x258>
        if(pte & PTE_U) printf(" U");
    80001516:	00007d97          	auipc	s11,0x7
    8000151a:	002d8d93          	addi	s11,s11,2 # 80008518 <etext+0x518>
        if(pte & PTE_X) printf(" X");
    8000151e:	00007d17          	auipc	s10,0x7
    80001522:	ff2d0d13          	addi	s10,s10,-14 # 80008510 <etext+0x510>
        vmprint_level((pagetable_t)pa, level + 1);
    80001526:	0015879b          	addiw	a5,a1,1
    8000152a:	f8f43423          	sd	a5,-120(s0)
    8000152e:	a81d                	j	80001564 <vmprint_level+0x98>
        printf(" -> flags:");
    80001530:	8566                	mv	a0,s9
    80001532:	39f040ef          	jal	800060d0 <printf>
        if(pte & PTE_V) printf(" V");
    80001536:	8562                	mv	a0,s8
    80001538:	399040ef          	jal	800060d0 <printf>
        if(pte & PTE_R) printf(" R");
    8000153c:	0024f793          	andi	a5,s1,2
    80001540:	efad                	bnez	a5,800015ba <vmprint_level+0xee>
        if(pte & PTE_W) printf(" W");
    80001542:	0044f793          	andi	a5,s1,4
    80001546:	e3c9                	bnez	a5,800015c8 <vmprint_level+0xfc>
        if(pte & PTE_X) printf(" X");
    80001548:	0084f793          	andi	a5,s1,8
    8000154c:	e7c9                	bnez	a5,800015d6 <vmprint_level+0x10a>
        if(pte & PTE_U) printf(" U");
    8000154e:	88c1                	andi	s1,s1,16
    80001550:	e4d9                	bnez	s1,800015de <vmprint_level+0x112>
        printf("\n");
    80001552:	855e                	mv	a0,s7
    80001554:	37d040ef          	jal	800060d0 <printf>
  for(int i = 0; i < 512; i++){
    80001558:	2905                	addiw	s2,s2,1
    8000155a:	09a1                	addi	s3,s3,8 # 1008 <_entry-0x7fffeff8>
    8000155c:	20000793          	li	a5,512
    80001560:	08f90363          	beq	s2,a5,800015e6 <vmprint_level+0x11a>
    pte_t pte = pagetable[i];
    80001564:	0009b483          	ld	s1,0(s3)
    if(pte & PTE_V){
    80001568:	0014f793          	andi	a5,s1,1
    8000156c:	d7f5                	beqz	a5,80001558 <vmprint_level+0x8c>
      for (int j = 0; j < level; j++) {
    8000156e:	03505163          	blez	s5,80001590 <vmprint_level+0xc4>
        printf(".. "); 
    80001572:	00007517          	auipc	a0,0x7
    80001576:	f5650513          	addi	a0,a0,-170 # 800084c8 <etext+0x4c8>
    8000157a:	357040ef          	jal	800060d0 <printf>
      for (int j = 0; j < level; j++) {
    8000157e:	4789                	li	a5,2
    80001580:	00fa9863          	bne	s5,a5,80001590 <vmprint_level+0xc4>
        printf(".. "); 
    80001584:	00007517          	auipc	a0,0x7
    80001588:	f4450513          	addi	a0,a0,-188 # 800084c8 <etext+0x4c8>
    8000158c:	345040ef          	jal	800060d0 <printf>
      uint64 pa = PTE2PA(pte);
    80001590:	00a4da13          	srli	s4,s1,0xa
    80001594:	0a32                	slli	s4,s4,0xc
      printf("pte %d: pte %ld, pa %ld", i, pte, pa);
    80001596:	86d2                	mv	a3,s4
    80001598:	8626                	mv	a2,s1
    8000159a:	85ca                	mv	a1,s2
    8000159c:	855a                	mv	a0,s6
    8000159e:	333040ef          	jal	800060d0 <printf>
      if((pte & (PTE_R|PTE_W|PTE_X)) == 0){
    800015a2:	00e4f793          	andi	a5,s1,14
    800015a6:	f7c9                	bnez	a5,80001530 <vmprint_level+0x64>
        printf("\n");
    800015a8:	855e                	mv	a0,s7
    800015aa:	327040ef          	jal	800060d0 <printf>
        vmprint_level((pagetable_t)pa, level + 1);
    800015ae:	f8843583          	ld	a1,-120(s0)
    800015b2:	8552                	mv	a0,s4
    800015b4:	f19ff0ef          	jal	800014cc <vmprint_level>
    800015b8:	b745                	j	80001558 <vmprint_level+0x8c>
        if(pte & PTE_R) printf(" R");
    800015ba:	00007517          	auipc	a0,0x7
    800015be:	f4650513          	addi	a0,a0,-186 # 80008500 <etext+0x500>
    800015c2:	30f040ef          	jal	800060d0 <printf>
    800015c6:	bfb5                	j	80001542 <vmprint_level+0x76>
        if(pte & PTE_W) printf(" W");
    800015c8:	00007517          	auipc	a0,0x7
    800015cc:	f4050513          	addi	a0,a0,-192 # 80008508 <etext+0x508>
    800015d0:	301040ef          	jal	800060d0 <printf>
    800015d4:	bf95                	j	80001548 <vmprint_level+0x7c>
        if(pte & PTE_X) printf(" X");
    800015d6:	856a                	mv	a0,s10
    800015d8:	2f9040ef          	jal	800060d0 <printf>
    800015dc:	bf8d                	j	8000154e <vmprint_level+0x82>
        if(pte & PTE_U) printf(" U");
    800015de:	856e                	mv	a0,s11
    800015e0:	2f1040ef          	jal	800060d0 <printf>
    800015e4:	b7bd                	j	80001552 <vmprint_level+0x86>
      }
    }
  }
}
    800015e6:	70e6                	ld	ra,120(sp)
    800015e8:	7446                	ld	s0,112(sp)
    800015ea:	74a6                	ld	s1,104(sp)
    800015ec:	7906                	ld	s2,96(sp)
    800015ee:	69e6                	ld	s3,88(sp)
    800015f0:	6a46                	ld	s4,80(sp)
    800015f2:	6aa6                	ld	s5,72(sp)
    800015f4:	6b06                	ld	s6,64(sp)
    800015f6:	7be2                	ld	s7,56(sp)
    800015f8:	7c42                	ld	s8,48(sp)
    800015fa:	7ca2                	ld	s9,40(sp)
    800015fc:	7d02                	ld	s10,32(sp)
    800015fe:	6de2                	ld	s11,24(sp)
    80001600:	6109                	addi	sp,sp,128
    80001602:	8082                	ret
    80001604:	8082                	ret

0000000080001606 <vmprint>:

// 打印页表的主函数。
void
vmprint(pagetable_t pagetable)
{
    80001606:	1101                	addi	sp,sp,-32
    80001608:	ec06                	sd	ra,24(sp)
    8000160a:	e822                	sd	s0,16(sp)
    8000160c:	e426                	sd	s1,8(sp)
    8000160e:	1000                	addi	s0,sp,32
    80001610:	84aa                	mv	s1,a0
  printf("page table -------------------- 0x%p\n", pagetable);
    80001612:	85aa                	mv	a1,a0
    80001614:	00007517          	auipc	a0,0x7
    80001618:	f0c50513          	addi	a0,a0,-244 # 80008520 <etext+0x520>
    8000161c:	2b5040ef          	jal	800060d0 <printf>
  // 从level 0 (即L2根页表) 开始递归打印。
  vmprint_level(pagetable, 0);
    80001620:	4581                	li	a1,0
    80001622:	8526                	mv	a0,s1
    80001624:	ea9ff0ef          	jal	800014cc <vmprint_level>
  printf("--------------------------------\n");
    80001628:	00007517          	auipc	a0,0x7
    8000162c:	f2050513          	addi	a0,a0,-224 # 80008548 <etext+0x548>
    80001630:	2a1040ef          	jal	800060d0 <printf>
}
    80001634:	60e2                	ld	ra,24(sp)
    80001636:	6442                	ld	s0,16(sp)
    80001638:	64a2                	ld	s1,8(sp)
    8000163a:	6105                	addi	sp,sp,32
    8000163c:	8082                	ret

000000008000163e <proc_mapstacks>:
// Allocate a page for each process's kernel stack.
// Map it high in memory, followed by an invalid
// guard page.
void
proc_mapstacks(pagetable_t kpgtbl)
{
    8000163e:	7139                	addi	sp,sp,-64
    80001640:	fc06                	sd	ra,56(sp)
    80001642:	f822                	sd	s0,48(sp)
    80001644:	f426                	sd	s1,40(sp)
    80001646:	f04a                	sd	s2,32(sp)
    80001648:	ec4e                	sd	s3,24(sp)
    8000164a:	e852                	sd	s4,16(sp)
    8000164c:	e456                	sd	s5,8(sp)
    8000164e:	e05a                	sd	s6,0(sp)
    80001650:	0080                	addi	s0,sp,64
    80001652:	8a2a                	mv	s4,a0
  struct proc *p;
  
  for(p = proc; p < &proc[NPROC]; p++) {
    80001654:	0000b497          	auipc	s1,0xb
    80001658:	ecc48493          	addi	s1,s1,-308 # 8000c520 <proc>
    char *pa = kalloc();
    if(pa == 0)
      panic("kalloc");
    uint64 va = KSTACK((int) (p - proc));
    8000165c:	8b26                	mv	s6,s1
    8000165e:	00a36937          	lui	s2,0xa36
    80001662:	77d90913          	addi	s2,s2,1917 # a3677d <_entry-0x7f5c9883>
    80001666:	0932                	slli	s2,s2,0xc
    80001668:	46d90913          	addi	s2,s2,1133
    8000166c:	0936                	slli	s2,s2,0xd
    8000166e:	df590913          	addi	s2,s2,-523
    80001672:	093a                	slli	s2,s2,0xe
    80001674:	6cf90913          	addi	s2,s2,1743
    80001678:	040009b7          	lui	s3,0x4000
    8000167c:	19fd                	addi	s3,s3,-1 # 3ffffff <_entry-0x7c000001>
    8000167e:	09b2                	slli	s3,s3,0xc
  for(p = proc; p < &proc[NPROC]; p++) {
    80001680:	00011a97          	auipc	s5,0x11
    80001684:	ca0a8a93          	addi	s5,s5,-864 # 80012320 <tickslock>
    char *pa = kalloc();
    80001688:	c19fe0ef          	jal	800002a0 <kalloc>
    8000168c:	862a                	mv	a2,a0
    if(pa == 0)
    8000168e:	cd15                	beqz	a0,800016ca <proc_mapstacks+0x8c>
    uint64 va = KSTACK((int) (p - proc));
    80001690:	416485b3          	sub	a1,s1,s6
    80001694:	858d                	srai	a1,a1,0x3
    80001696:	032585b3          	mul	a1,a1,s2
    8000169a:	2585                	addiw	a1,a1,1
    8000169c:	00d5959b          	slliw	a1,a1,0xd
    kvmmap(kpgtbl, va, (uint64)pa, PGSIZE, PTE_R | PTE_W);
    800016a0:	4719                	li	a4,6
    800016a2:	6685                	lui	a3,0x1
    800016a4:	40b985b3          	sub	a1,s3,a1
    800016a8:	8552                	mv	a0,s4
    800016aa:	b4cff0ef          	jal	800009f6 <kvmmap>
  for(p = proc; p < &proc[NPROC]; p++) {
    800016ae:	17848493          	addi	s1,s1,376
    800016b2:	fd549be3          	bne	s1,s5,80001688 <proc_mapstacks+0x4a>
  }
}
    800016b6:	70e2                	ld	ra,56(sp)
    800016b8:	7442                	ld	s0,48(sp)
    800016ba:	74a2                	ld	s1,40(sp)
    800016bc:	7902                	ld	s2,32(sp)
    800016be:	69e2                	ld	s3,24(sp)
    800016c0:	6a42                	ld	s4,16(sp)
    800016c2:	6aa2                	ld	s5,8(sp)
    800016c4:	6b02                	ld	s6,0(sp)
    800016c6:	6121                	addi	sp,sp,64
    800016c8:	8082                	ret
      panic("kalloc");
    800016ca:	00007517          	auipc	a0,0x7
    800016ce:	ea650513          	addi	a0,a0,-346 # 80008570 <etext+0x570>
    800016d2:	4d1040ef          	jal	800063a2 <panic>

00000000800016d6 <procinit>:

// initialize the proc table.
void
procinit(void)
{
    800016d6:	7139                	addi	sp,sp,-64
    800016d8:	fc06                	sd	ra,56(sp)
    800016da:	f822                	sd	s0,48(sp)
    800016dc:	f426                	sd	s1,40(sp)
    800016de:	f04a                	sd	s2,32(sp)
    800016e0:	ec4e                	sd	s3,24(sp)
    800016e2:	e852                	sd	s4,16(sp)
    800016e4:	e456                	sd	s5,8(sp)
    800016e6:	e05a                	sd	s6,0(sp)
    800016e8:	0080                	addi	s0,sp,64
  struct proc *p;
  
  initlock(&pid_lock, "nextpid");
    800016ea:	00007597          	auipc	a1,0x7
    800016ee:	e8e58593          	addi	a1,a1,-370 # 80008578 <etext+0x578>
    800016f2:	0000b517          	auipc	a0,0xb
    800016f6:	9ee50513          	addi	a0,a0,-1554 # 8000c0e0 <pid_lock>
    800016fa:	104050ef          	jal	800067fe <initlock>
  initlock(&wait_lock, "wait_lock");
    800016fe:	00007597          	auipc	a1,0x7
    80001702:	e8258593          	addi	a1,a1,-382 # 80008580 <etext+0x580>
    80001706:	0000b517          	auipc	a0,0xb
    8000170a:	9fa50513          	addi	a0,a0,-1542 # 8000c100 <wait_lock>
    8000170e:	0f0050ef          	jal	800067fe <initlock>
  for(p = proc; p < &proc[NPROC]; p++) {
    80001712:	0000b497          	auipc	s1,0xb
    80001716:	e0e48493          	addi	s1,s1,-498 # 8000c520 <proc>
      initlock(&p->lock, "proc");
    8000171a:	00007b17          	auipc	s6,0x7
    8000171e:	e76b0b13          	addi	s6,s6,-394 # 80008590 <etext+0x590>
      p->state = UNUSED;
      p->kstack = KSTACK((int) (p - proc));
    80001722:	8aa6                	mv	s5,s1
    80001724:	00a36937          	lui	s2,0xa36
    80001728:	77d90913          	addi	s2,s2,1917 # a3677d <_entry-0x7f5c9883>
    8000172c:	0932                	slli	s2,s2,0xc
    8000172e:	46d90913          	addi	s2,s2,1133
    80001732:	0936                	slli	s2,s2,0xd
    80001734:	df590913          	addi	s2,s2,-523
    80001738:	093a                	slli	s2,s2,0xe
    8000173a:	6cf90913          	addi	s2,s2,1743
    8000173e:	040009b7          	lui	s3,0x4000
    80001742:	19fd                	addi	s3,s3,-1 # 3ffffff <_entry-0x7c000001>
    80001744:	09b2                	slli	s3,s3,0xc
  for(p = proc; p < &proc[NPROC]; p++) {
    80001746:	00011a17          	auipc	s4,0x11
    8000174a:	bdaa0a13          	addi	s4,s4,-1062 # 80012320 <tickslock>
      initlock(&p->lock, "proc");
    8000174e:	85da                	mv	a1,s6
    80001750:	8526                	mv	a0,s1
    80001752:	0ac050ef          	jal	800067fe <initlock>
      p->state = UNUSED;
    80001756:	0204a023          	sw	zero,32(s1)
      p->kstack = KSTACK((int) (p - proc));
    8000175a:	415487b3          	sub	a5,s1,s5
    8000175e:	878d                	srai	a5,a5,0x3
    80001760:	032787b3          	mul	a5,a5,s2
    80001764:	2785                	addiw	a5,a5,1
    80001766:	00d7979b          	slliw	a5,a5,0xd
    8000176a:	40f987b3          	sub	a5,s3,a5
    8000176e:	e4bc                	sd	a5,72(s1)
  for(p = proc; p < &proc[NPROC]; p++) {
    80001770:	17848493          	addi	s1,s1,376
    80001774:	fd449de3          	bne	s1,s4,8000174e <procinit+0x78>
  }
}
    80001778:	70e2                	ld	ra,56(sp)
    8000177a:	7442                	ld	s0,48(sp)
    8000177c:	74a2                	ld	s1,40(sp)
    8000177e:	7902                	ld	s2,32(sp)
    80001780:	69e2                	ld	s3,24(sp)
    80001782:	6a42                	ld	s4,16(sp)
    80001784:	6aa2                	ld	s5,8(sp)
    80001786:	6b02                	ld	s6,0(sp)
    80001788:	6121                	addi	sp,sp,64
    8000178a:	8082                	ret

000000008000178c <cpuid>:
// Must be called with interrupts disabled,
// to prevent race with process being moved
// to a different CPU.
int
cpuid()
{
    8000178c:	1141                	addi	sp,sp,-16
    8000178e:	e422                	sd	s0,8(sp)
    80001790:	0800                	addi	s0,sp,16
  asm volatile("mv %0, tp" : "=r" (x) );
    80001792:	8512                	mv	a0,tp
  int id = r_tp();
  return id;
}
    80001794:	2501                	sext.w	a0,a0
    80001796:	6422                	ld	s0,8(sp)
    80001798:	0141                	addi	sp,sp,16
    8000179a:	8082                	ret

000000008000179c <mycpu>:

// Return this CPU's cpu struct.
// Interrupts must be disabled.
struct cpu*
mycpu(void)
{
    8000179c:	1141                	addi	sp,sp,-16
    8000179e:	e422                	sd	s0,8(sp)
    800017a0:	0800                	addi	s0,sp,16
    800017a2:	8792                	mv	a5,tp
  int id = cpuid();
  struct cpu *c = &cpus[id];
    800017a4:	2781                	sext.w	a5,a5
    800017a6:	079e                	slli	a5,a5,0x7
  return c;
}
    800017a8:	0000b517          	auipc	a0,0xb
    800017ac:	97850513          	addi	a0,a0,-1672 # 8000c120 <cpus>
    800017b0:	953e                	add	a0,a0,a5
    800017b2:	6422                	ld	s0,8(sp)
    800017b4:	0141                	addi	sp,sp,16
    800017b6:	8082                	ret

00000000800017b8 <myproc>:

// Return the current struct proc *, or zero if none.
struct proc*
myproc(void)
{
    800017b8:	1101                	addi	sp,sp,-32
    800017ba:	ec06                	sd	ra,24(sp)
    800017bc:	e822                	sd	s0,16(sp)
    800017be:	e426                	sd	s1,8(sp)
    800017c0:	1000                	addi	s0,sp,32
  push_off();
    800017c2:	6f5040ef          	jal	800066b6 <push_off>
    800017c6:	8792                	mv	a5,tp
  struct cpu *c = mycpu();
  struct proc *p = c->proc;
    800017c8:	2781                	sext.w	a5,a5
    800017ca:	079e                	slli	a5,a5,0x7
    800017cc:	0000b717          	auipc	a4,0xb
    800017d0:	91470713          	addi	a4,a4,-1772 # 8000c0e0 <pid_lock>
    800017d4:	97ba                	add	a5,a5,a4
    800017d6:	63a4                	ld	s1,64(a5)
  pop_off();
    800017d8:	797040ef          	jal	8000676e <pop_off>
  return p;
}
    800017dc:	8526                	mv	a0,s1
    800017de:	60e2                	ld	ra,24(sp)
    800017e0:	6442                	ld	s0,16(sp)
    800017e2:	64a2                	ld	s1,8(sp)
    800017e4:	6105                	addi	sp,sp,32
    800017e6:	8082                	ret

00000000800017e8 <forkret>:

// A fork child's very first scheduling by scheduler()
// will swtch to forkret.
void
forkret(void)
{
    800017e8:	1141                	addi	sp,sp,-16
    800017ea:	e406                	sd	ra,8(sp)
    800017ec:	e022                	sd	s0,0(sp)
    800017ee:	0800                	addi	s0,sp,16
  static int first = 1;

  // Still holding p->lock from scheduler.
  release(&myproc()->lock);
    800017f0:	fc9ff0ef          	jal	800017b8 <myproc>
    800017f4:	7cf040ef          	jal	800067c2 <release>

  if (first) {
    800017f8:	0000a797          	auipc	a5,0xa
    800017fc:	6487a783          	lw	a5,1608(a5) # 8000be40 <first.1>
    80001800:	e799                	bnez	a5,8000180e <forkret+0x26>
    first = 0;
    // ensure other cores see first=0.
    __sync_synchronize();
  }

  usertrapret();
    80001802:	3cd000ef          	jal	800023ce <usertrapret>
}
    80001806:	60a2                	ld	ra,8(sp)
    80001808:	6402                	ld	s0,0(sp)
    8000180a:	0141                	addi	sp,sp,16
    8000180c:	8082                	ret
    fsinit(ROOTDEV);
    8000180e:	4505                	li	a0,1
    80001810:	389010ef          	jal	80003398 <fsinit>
    first = 0;
    80001814:	0000a797          	auipc	a5,0xa
    80001818:	6207a623          	sw	zero,1580(a5) # 8000be40 <first.1>
    __sync_synchronize();
    8000181c:	0330000f          	fence	rw,rw
    80001820:	b7cd                	j	80001802 <forkret+0x1a>

0000000080001822 <allocpid>:
{
    80001822:	1101                	addi	sp,sp,-32
    80001824:	ec06                	sd	ra,24(sp)
    80001826:	e822                	sd	s0,16(sp)
    80001828:	e426                	sd	s1,8(sp)
    8000182a:	e04a                	sd	s2,0(sp)
    8000182c:	1000                	addi	s0,sp,32
  acquire(&pid_lock);
    8000182e:	0000b917          	auipc	s2,0xb
    80001832:	8b290913          	addi	s2,s2,-1870 # 8000c0e0 <pid_lock>
    80001836:	854a                	mv	a0,s2
    80001838:	6bf040ef          	jal	800066f6 <acquire>
  pid = nextpid;
    8000183c:	0000a797          	auipc	a5,0xa
    80001840:	60878793          	addi	a5,a5,1544 # 8000be44 <nextpid>
    80001844:	4384                	lw	s1,0(a5)
  nextpid = nextpid + 1;
    80001846:	0014871b          	addiw	a4,s1,1
    8000184a:	c398                	sw	a4,0(a5)
  release(&pid_lock);
    8000184c:	854a                	mv	a0,s2
    8000184e:	775040ef          	jal	800067c2 <release>
}
    80001852:	8526                	mv	a0,s1
    80001854:	60e2                	ld	ra,24(sp)
    80001856:	6442                	ld	s0,16(sp)
    80001858:	64a2                	ld	s1,8(sp)
    8000185a:	6902                	ld	s2,0(sp)
    8000185c:	6105                	addi	sp,sp,32
    8000185e:	8082                	ret

0000000080001860 <proc_pagetable>:
{
    80001860:	1101                	addi	sp,sp,-32
    80001862:	ec06                	sd	ra,24(sp)
    80001864:	e822                	sd	s0,16(sp)
    80001866:	e426                	sd	s1,8(sp)
    80001868:	e04a                	sd	s2,0(sp)
    8000186a:	1000                	addi	s0,sp,32
    8000186c:	892a                	mv	s2,a0
  pagetable = uvmcreate();
    8000186e:	ca6ff0ef          	jal	80000d14 <uvmcreate>
    80001872:	84aa                	mv	s1,a0
  if(pagetable == 0)
    80001874:	cd05                	beqz	a0,800018ac <proc_pagetable+0x4c>
  if(mappages(pagetable, TRAMPOLINE, PGSIZE,
    80001876:	4729                	li	a4,10
    80001878:	00005697          	auipc	a3,0x5
    8000187c:	78868693          	addi	a3,a3,1928 # 80007000 <_trampoline>
    80001880:	6605                	lui	a2,0x1
    80001882:	040005b7          	lui	a1,0x4000
    80001886:	15fd                	addi	a1,a1,-1 # 3ffffff <_entry-0x7c000001>
    80001888:	05b2                	slli	a1,a1,0xc
    8000188a:	8b2ff0ef          	jal	8000093c <mappages>
    8000188e:	02054663          	bltz	a0,800018ba <proc_pagetable+0x5a>
  if(mappages(pagetable, TRAPFRAME, PGSIZE,
    80001892:	4719                	li	a4,6
    80001894:	06093683          	ld	a3,96(s2)
    80001898:	6605                	lui	a2,0x1
    8000189a:	020005b7          	lui	a1,0x2000
    8000189e:	15fd                	addi	a1,a1,-1 # 1ffffff <_entry-0x7e000001>
    800018a0:	05b6                	slli	a1,a1,0xd
    800018a2:	8526                	mv	a0,s1
    800018a4:	898ff0ef          	jal	8000093c <mappages>
    800018a8:	00054f63          	bltz	a0,800018c6 <proc_pagetable+0x66>
}
    800018ac:	8526                	mv	a0,s1
    800018ae:	60e2                	ld	ra,24(sp)
    800018b0:	6442                	ld	s0,16(sp)
    800018b2:	64a2                	ld	s1,8(sp)
    800018b4:	6902                	ld	s2,0(sp)
    800018b6:	6105                	addi	sp,sp,32
    800018b8:	8082                	ret
    uvmfree(pagetable, 0);
    800018ba:	4581                	li	a1,0
    800018bc:	8526                	mv	a0,s1
    800018be:	e1eff0ef          	jal	80000edc <uvmfree>
    return 0;
    800018c2:	4481                	li	s1,0
    800018c4:	b7e5                	j	800018ac <proc_pagetable+0x4c>
    uvmunmap(pagetable, TRAMPOLINE, 1, 0);
    800018c6:	4681                	li	a3,0
    800018c8:	4605                	li	a2,1
    800018ca:	040005b7          	lui	a1,0x4000
    800018ce:	15fd                	addi	a1,a1,-1 # 3ffffff <_entry-0x7c000001>
    800018d0:	05b2                	slli	a1,a1,0xc
    800018d2:	8526                	mv	a0,s1
    800018d4:	aecff0ef          	jal	80000bc0 <uvmunmap>
    uvmfree(pagetable, 0);
    800018d8:	4581                	li	a1,0
    800018da:	8526                	mv	a0,s1
    800018dc:	e00ff0ef          	jal	80000edc <uvmfree>
    return 0;
    800018e0:	4481                	li	s1,0
    800018e2:	b7e9                	j	800018ac <proc_pagetable+0x4c>

00000000800018e4 <proc_freepagetable>:
{
    800018e4:	1101                	addi	sp,sp,-32
    800018e6:	ec06                	sd	ra,24(sp)
    800018e8:	e822                	sd	s0,16(sp)
    800018ea:	e426                	sd	s1,8(sp)
    800018ec:	e04a                	sd	s2,0(sp)
    800018ee:	1000                	addi	s0,sp,32
    800018f0:	84aa                	mv	s1,a0
    800018f2:	892e                	mv	s2,a1
  uvmunmap(pagetable, TRAMPOLINE, PGSIZE, 0);
    800018f4:	4681                	li	a3,0
    800018f6:	6605                	lui	a2,0x1
    800018f8:	040005b7          	lui	a1,0x4000
    800018fc:	15fd                	addi	a1,a1,-1 # 3ffffff <_entry-0x7c000001>
    800018fe:	05b2                	slli	a1,a1,0xc
    80001900:	ac0ff0ef          	jal	80000bc0 <uvmunmap>
  uvmunmap(pagetable, TRAPFRAME, PGSIZE, 0);
    80001904:	4681                	li	a3,0
    80001906:	6605                	lui	a2,0x1
    80001908:	020005b7          	lui	a1,0x2000
    8000190c:	15fd                	addi	a1,a1,-1 # 1ffffff <_entry-0x7e000001>
    8000190e:	05b6                	slli	a1,a1,0xd
    80001910:	8526                	mv	a0,s1
    80001912:	aaeff0ef          	jal	80000bc0 <uvmunmap>
  uvmfree(pagetable, sz); 
    80001916:	85ca                	mv	a1,s2
    80001918:	8526                	mv	a0,s1
    8000191a:	dc2ff0ef          	jal	80000edc <uvmfree>
}
    8000191e:	60e2                	ld	ra,24(sp)
    80001920:	6442                	ld	s0,16(sp)
    80001922:	64a2                	ld	s1,8(sp)
    80001924:	6902                	ld	s2,0(sp)
    80001926:	6105                	addi	sp,sp,32
    80001928:	8082                	ret

000000008000192a <freeproc>:
{
    8000192a:	1101                	addi	sp,sp,-32
    8000192c:	ec06                	sd	ra,24(sp)
    8000192e:	e822                	sd	s0,16(sp)
    80001930:	e426                	sd	s1,8(sp)
    80001932:	1000                	addi	s0,sp,32
    80001934:	84aa                	mv	s1,a0
  if(p->trapframe)
    80001936:	7128                	ld	a0,96(a0)
    80001938:	c119                	beqz	a0,8000193e <freeproc+0x14>
    kfree((void*)p->trapframe);
    8000193a:	8adfe0ef          	jal	800001e6 <kfree>
  p->trapframe = 0;
    8000193e:	0604b023          	sd	zero,96(s1)
  if(p->pagetable)
    80001942:	6ca8                	ld	a0,88(s1)
    80001944:	c501                	beqz	a0,8000194c <freeproc+0x22>
    proc_freepagetable(p->pagetable, p->sz);
    80001946:	68ac                	ld	a1,80(s1)
    80001948:	f9dff0ef          	jal	800018e4 <proc_freepagetable>
  p->pagetable = 0;
    8000194c:	0404bc23          	sd	zero,88(s1)
  p->sz = 0;
    80001950:	0404b823          	sd	zero,80(s1)
  p->pid = 0;
    80001954:	0204ac23          	sw	zero,56(s1)
  p->parent = 0;
    80001958:	0404b023          	sd	zero,64(s1)
  p->name[0] = 0;
    8000195c:	16048023          	sb	zero,352(s1)
  p->chan = 0;
    80001960:	0204b423          	sd	zero,40(s1)
  p->killed = 0;
    80001964:	0204a823          	sw	zero,48(s1)
  p->xstate = 0;
    80001968:	0204aa23          	sw	zero,52(s1)
  p->state = UNUSED;
    8000196c:	0204a023          	sw	zero,32(s1)
}
    80001970:	60e2                	ld	ra,24(sp)
    80001972:	6442                	ld	s0,16(sp)
    80001974:	64a2                	ld	s1,8(sp)
    80001976:	6105                	addi	sp,sp,32
    80001978:	8082                	ret

000000008000197a <allocproc>:
{
    8000197a:	1101                	addi	sp,sp,-32
    8000197c:	ec06                	sd	ra,24(sp)
    8000197e:	e822                	sd	s0,16(sp)
    80001980:	e426                	sd	s1,8(sp)
    80001982:	e04a                	sd	s2,0(sp)
    80001984:	1000                	addi	s0,sp,32
  for(p = proc; p < &proc[NPROC]; p++) {
    80001986:	0000b497          	auipc	s1,0xb
    8000198a:	b9a48493          	addi	s1,s1,-1126 # 8000c520 <proc>
    8000198e:	00011917          	auipc	s2,0x11
    80001992:	99290913          	addi	s2,s2,-1646 # 80012320 <tickslock>
    acquire(&p->lock);
    80001996:	8526                	mv	a0,s1
    80001998:	55f040ef          	jal	800066f6 <acquire>
    if(p->state == UNUSED) {
    8000199c:	509c                	lw	a5,32(s1)
    8000199e:	cb91                	beqz	a5,800019b2 <allocproc+0x38>
      release(&p->lock);
    800019a0:	8526                	mv	a0,s1
    800019a2:	621040ef          	jal	800067c2 <release>
  for(p = proc; p < &proc[NPROC]; p++) {
    800019a6:	17848493          	addi	s1,s1,376
    800019aa:	ff2496e3          	bne	s1,s2,80001996 <allocproc+0x1c>
  return 0;
    800019ae:	4481                	li	s1,0
    800019b0:	a089                	j	800019f2 <allocproc+0x78>
  p->pid = allocpid();
    800019b2:	e71ff0ef          	jal	80001822 <allocpid>
    800019b6:	dc88                	sw	a0,56(s1)
  p->state = USED;
    800019b8:	4785                	li	a5,1
    800019ba:	d09c                	sw	a5,32(s1)
  if((p->trapframe = (struct trapframe *)kalloc()) == 0){
    800019bc:	8e5fe0ef          	jal	800002a0 <kalloc>
    800019c0:	892a                	mv	s2,a0
    800019c2:	f0a8                	sd	a0,96(s1)
    800019c4:	cd15                	beqz	a0,80001a00 <allocproc+0x86>
  p->pagetable = proc_pagetable(p);
    800019c6:	8526                	mv	a0,s1
    800019c8:	e99ff0ef          	jal	80001860 <proc_pagetable>
    800019cc:	892a                	mv	s2,a0
    800019ce:	eca8                	sd	a0,88(s1)
  if(p->pagetable == 0){
    800019d0:	c121                	beqz	a0,80001a10 <allocproc+0x96>
  memset(&p->context, 0, sizeof(p->context));
    800019d2:	07000613          	li	a2,112
    800019d6:	4581                	li	a1,0
    800019d8:	06848513          	addi	a0,s1,104
    800019dc:	ad3fe0ef          	jal	800004ae <memset>
  p->context.ra = (uint64)forkret;
    800019e0:	00000797          	auipc	a5,0x0
    800019e4:	e0878793          	addi	a5,a5,-504 # 800017e8 <forkret>
    800019e8:	f4bc                	sd	a5,104(s1)
  p->context.sp = p->kstack + PGSIZE;
    800019ea:	64bc                	ld	a5,72(s1)
    800019ec:	6705                	lui	a4,0x1
    800019ee:	97ba                	add	a5,a5,a4
    800019f0:	f8bc                	sd	a5,112(s1)
}
    800019f2:	8526                	mv	a0,s1
    800019f4:	60e2                	ld	ra,24(sp)
    800019f6:	6442                	ld	s0,16(sp)
    800019f8:	64a2                	ld	s1,8(sp)
    800019fa:	6902                	ld	s2,0(sp)
    800019fc:	6105                	addi	sp,sp,32
    800019fe:	8082                	ret
    freeproc(p);
    80001a00:	8526                	mv	a0,s1
    80001a02:	f29ff0ef          	jal	8000192a <freeproc>
    release(&p->lock);
    80001a06:	8526                	mv	a0,s1
    80001a08:	5bb040ef          	jal	800067c2 <release>
    return 0;
    80001a0c:	84ca                	mv	s1,s2
    80001a0e:	b7d5                	j	800019f2 <allocproc+0x78>
    freeproc(p);
    80001a10:	8526                	mv	a0,s1
    80001a12:	f19ff0ef          	jal	8000192a <freeproc>
    release(&p->lock);
    80001a16:	8526                	mv	a0,s1
    80001a18:	5ab040ef          	jal	800067c2 <release>
    return 0;
    80001a1c:	84ca                	mv	s1,s2
    80001a1e:	bfd1                	j	800019f2 <allocproc+0x78>

0000000080001a20 <userinit>:
{
    80001a20:	1101                	addi	sp,sp,-32
    80001a22:	ec06                	sd	ra,24(sp)
    80001a24:	e822                	sd	s0,16(sp)
    80001a26:	e426                	sd	s1,8(sp)
    80001a28:	1000                	addi	s0,sp,32
  p = allocproc();
    80001a2a:	f51ff0ef          	jal	8000197a <allocproc>
    80001a2e:	84aa                	mv	s1,a0
  initproc = p;
    80001a30:	0000a797          	auipc	a5,0xa
    80001a34:	4aa7b423          	sd	a0,1192(a5) # 8000bed8 <initproc>
  uvmfirst(p->pagetable, initcode, sizeof(initcode));
    80001a38:	03400613          	li	a2,52
    80001a3c:	0000a597          	auipc	a1,0xa
    80001a40:	41458593          	addi	a1,a1,1044 # 8000be50 <initcode>
    80001a44:	6d28                	ld	a0,88(a0)
    80001a46:	af4ff0ef          	jal	80000d3a <uvmfirst>
  p->sz = PGSIZE;
    80001a4a:	6785                	lui	a5,0x1
    80001a4c:	e8bc                	sd	a5,80(s1)
  p->trapframe->epc = 0;      // user program counter
    80001a4e:	70b8                	ld	a4,96(s1)
    80001a50:	00073c23          	sd	zero,24(a4) # 1018 <_entry-0x7fffefe8>
  p->trapframe->sp = PGSIZE;  // user stack pointer
    80001a54:	70b8                	ld	a4,96(s1)
    80001a56:	fb1c                	sd	a5,48(a4)
  safestrcpy(p->name, "initcode", sizeof(p->name));
    80001a58:	4641                	li	a2,16
    80001a5a:	00007597          	auipc	a1,0x7
    80001a5e:	b3e58593          	addi	a1,a1,-1218 # 80008598 <etext+0x598>
    80001a62:	16048513          	addi	a0,s1,352
    80001a66:	b87fe0ef          	jal	800005ec <safestrcpy>
  p->cwd = namei("/");
    80001a6a:	00007517          	auipc	a0,0x7
    80001a6e:	b3e50513          	addi	a0,a0,-1218 # 800085a8 <etext+0x5a8>
    80001a72:	26c020ef          	jal	80003cde <namei>
    80001a76:	14a4bc23          	sd	a0,344(s1)
  p->state = RUNNABLE;
    80001a7a:	478d                	li	a5,3
    80001a7c:	d09c                	sw	a5,32(s1)
  release(&p->lock);
    80001a7e:	8526                	mv	a0,s1
    80001a80:	543040ef          	jal	800067c2 <release>
}
    80001a84:	60e2                	ld	ra,24(sp)
    80001a86:	6442                	ld	s0,16(sp)
    80001a88:	64a2                	ld	s1,8(sp)
    80001a8a:	6105                	addi	sp,sp,32
    80001a8c:	8082                	ret

0000000080001a8e <growproc>:
{
    80001a8e:	7139                	addi	sp,sp,-64
    80001a90:	fc06                	sd	ra,56(sp)
    80001a92:	f822                	sd	s0,48(sp)
    80001a94:	f04a                	sd	s2,32(sp)
    80001a96:	ec4e                	sd	s3,24(sp)
    80001a98:	0080                	addi	s0,sp,64
    80001a9a:	89aa                	mv	s3,a0
  struct proc *p = myproc();
    80001a9c:	d1dff0ef          	jal	800017b8 <myproc>
    80001aa0:	892a                	mv	s2,a0
  if (n > 0) {
    80001aa2:	09305663          	blez	s3,80001b2e <growproc+0xa0>
    80001aa6:	f426                	sd	s1,40(sp)
    80001aa8:	e852                	sd	s4,16(sp)
    80001aaa:	e456                	sd	s5,8(sp)
    80001aac:	e05a                	sd	s6,0(sp)
    if ((target_newsz = p->sz + n) > MAXVA) return -1;
    80001aae:	05053b03          	ld	s6,80(a0)
    80001ab2:	99da                	add	s3,s3,s6
    80001ab4:	4785                	li	a5,1
    80001ab6:	179a                	slli	a5,a5,0x26
    80001ab8:	0f37ec63          	bltu	a5,s3,80001bb0 <growproc+0x122>
  uint64 next_sp_boundary = SUPERPGROUNDUP(p->sz);
    80001abc:	002007b7          	lui	a5,0x200
    80001ac0:	17fd                	addi	a5,a5,-1 # 1fffff <_entry-0x7fe00001>
    80001ac2:	97da                	add	a5,a5,s6
    80001ac4:	ffe00737          	lui	a4,0xffe00
    80001ac8:	8ff9                	and	a5,a5,a4
  if (next_sp_boundary > p->sz) {
    80001aca:	08fb6363          	bltu	s6,a5,80001b50 <growproc+0xc2>
  while (p->sz + SUPERPGSIZE <= target_newsz) {
    80001ace:	05093703          	ld	a4,80(s2)
    80001ad2:	002007b7          	lui	a5,0x200
    80001ad6:	97ba                	add	a5,a5,a4
    80001ad8:	02f9ec63          	bltu	s3,a5,80001b10 <growproc+0x82>
      p->sz += SUPERPGSIZE;
    80001adc:	00200ab7          	lui	s5,0x200
  while (p->sz + SUPERPGSIZE <= target_newsz) {
    80001ae0:	00400a37          	lui	s4,0x400
    void* pa = superalloc();
    80001ae4:	899fe0ef          	jal	8000037c <superalloc>
    80001ae8:	84aa                	mv	s1,a0
    if(pa) {
    80001aea:	c11d                	beqz	a0,80001b10 <growproc+0x82>
      if(uvmmap_super(p->pagetable, p->sz, (uint64)pa, PTE_U|PTE_R|PTE_W) != 0) {
    80001aec:	46d9                	li	a3,22
    80001aee:	862a                	mv	a2,a0
    80001af0:	05093583          	ld	a1,80(s2)
    80001af4:	05893503          	ld	a0,88(s2)
    80001af8:	ff5fe0ef          	jal	80000aec <uvmmap_super>
    80001afc:	e92d                	bnez	a0,80001b6e <growproc+0xe0>
      p->sz += SUPERPGSIZE;
    80001afe:	05093783          	ld	a5,80(s2)
    80001b02:	01578733          	add	a4,a5,s5
    80001b06:	04e93823          	sd	a4,80(s2)
  while (p->sz + SUPERPGSIZE <= target_newsz) {
    80001b0a:	97d2                	add	a5,a5,s4
    80001b0c:	fcf9fce3          	bgeu	s3,a5,80001ae4 <growproc+0x56>
  if (p->sz < target_newsz) {
    80001b10:	05093583          	ld	a1,80(s2)
  return 0;
    80001b14:	4501                	li	a0,0
  if (p->sz < target_newsz) {
    80001b16:	0735ee63          	bltu	a1,s3,80001b92 <growproc+0x104>
    80001b1a:	74a2                	ld	s1,40(sp)
    80001b1c:	6a42                	ld	s4,16(sp)
    80001b1e:	6aa2                	ld	s5,8(sp)
    80001b20:	6b02                	ld	s6,0(sp)
}
    80001b22:	70e2                	ld	ra,56(sp)
    80001b24:	7442                	ld	s0,48(sp)
    80001b26:	7902                	ld	s2,32(sp)
    80001b28:	69e2                	ld	s3,24(sp)
    80001b2a:	6121                	addi	sp,sp,64
    80001b2c:	8082                	ret
    return 0;
    80001b2e:	4501                	li	a0,0
  } else if (n < 0) {
    80001b30:	fe09d9e3          	bgez	s3,80001b22 <growproc+0x94>
    target_newsz = p->sz + n;
    80001b34:	05093583          	ld	a1,80(s2)
    80001b38:	00b98633          	add	a2,s3,a1
    if (target_newsz > p->sz) return -1; // overflow
    80001b3c:	08c5e063          	bltu	a1,a2,80001bbc <growproc+0x12e>
    p->sz = uvmdealloc(p->pagetable, p->sz, target_newsz);
    80001b40:	05893503          	ld	a0,88(s2)
    80001b44:	a54ff0ef          	jal	80000d98 <uvmdealloc>
    80001b48:	04a93823          	sd	a0,80(s2)
    return 0;
    80001b4c:	4501                	li	a0,0
    80001b4e:	bfd1                	j	80001b22 <growproc+0x94>
    uint64 alloc_until = (next_sp_boundary < target_newsz) ? next_sp_boundary : target_newsz;
    80001b50:	84ce                	mv	s1,s3
    80001b52:	0137f363          	bgeu	a5,s3,80001b58 <growproc+0xca>
    80001b56:	84be                	mv	s1,a5
    if (uvmalloc(p->pagetable, p->sz, alloc_until, PTE_W) == 0) {
    80001b58:	4691                	li	a3,4
    80001b5a:	8626                	mv	a2,s1
    80001b5c:	85da                	mv	a1,s6
    80001b5e:	05893503          	ld	a0,88(s2)
    80001b62:	a74ff0ef          	jal	80000dd6 <uvmalloc>
    80001b66:	cd29                	beqz	a0,80001bc0 <growproc+0x132>
    p->sz = alloc_until;
    80001b68:	04993823          	sd	s1,80(s2)
    80001b6c:	b78d                	j	80001ace <growproc+0x40>
        superfree(pa);
    80001b6e:	8526                	mv	a0,s1
    80001b70:	897fe0ef          	jal	80000406 <superfree>
  uvmdealloc(p->pagetable, p->sz, original_sz);
    80001b74:	865a                	mv	a2,s6
    80001b76:	05093583          	ld	a1,80(s2)
    80001b7a:	05893503          	ld	a0,88(s2)
    80001b7e:	a1aff0ef          	jal	80000d98 <uvmdealloc>
  p->sz = original_sz;
    80001b82:	05693823          	sd	s6,80(s2)
  return -1;
    80001b86:	557d                	li	a0,-1
    80001b88:	74a2                	ld	s1,40(sp)
    80001b8a:	6a42                	ld	s4,16(sp)
    80001b8c:	6aa2                	ld	s5,8(sp)
    80001b8e:	6b02                	ld	s6,0(sp)
    80001b90:	bf49                	j	80001b22 <growproc+0x94>
    if (uvmalloc(p->pagetable, p->sz, target_newsz, PTE_W) == 0) {
    80001b92:	4691                	li	a3,4
    80001b94:	864e                	mv	a2,s3
    80001b96:	05893503          	ld	a0,88(s2)
    80001b9a:	a3cff0ef          	jal	80000dd6 <uvmalloc>
    80001b9e:	d979                	beqz	a0,80001b74 <growproc+0xe6>
    p->sz = target_newsz;
    80001ba0:	05393823          	sd	s3,80(s2)
  return 0;
    80001ba4:	4501                	li	a0,0
    80001ba6:	74a2                	ld	s1,40(sp)
    80001ba8:	6a42                	ld	s4,16(sp)
    80001baa:	6aa2                	ld	s5,8(sp)
    80001bac:	6b02                	ld	s6,0(sp)
    80001bae:	bf95                	j	80001b22 <growproc+0x94>
    if ((target_newsz = p->sz + n) > MAXVA) return -1;
    80001bb0:	557d                	li	a0,-1
    80001bb2:	74a2                	ld	s1,40(sp)
    80001bb4:	6a42                	ld	s4,16(sp)
    80001bb6:	6aa2                	ld	s5,8(sp)
    80001bb8:	6b02                	ld	s6,0(sp)
    80001bba:	b7a5                	j	80001b22 <growproc+0x94>
    if (target_newsz > p->sz) return -1; // overflow
    80001bbc:	557d                	li	a0,-1
    80001bbe:	b795                	j	80001b22 <growproc+0x94>
      return -1;
    80001bc0:	557d                	li	a0,-1
    80001bc2:	74a2                	ld	s1,40(sp)
    80001bc4:	6a42                	ld	s4,16(sp)
    80001bc6:	6aa2                	ld	s5,8(sp)
    80001bc8:	6b02                	ld	s6,0(sp)
    80001bca:	bfa1                	j	80001b22 <growproc+0x94>

0000000080001bcc <fork>:
{
    80001bcc:	7139                	addi	sp,sp,-64
    80001bce:	fc06                	sd	ra,56(sp)
    80001bd0:	f822                	sd	s0,48(sp)
    80001bd2:	f04a                	sd	s2,32(sp)
    80001bd4:	e456                	sd	s5,8(sp)
    80001bd6:	0080                	addi	s0,sp,64
  struct proc *p = myproc();
    80001bd8:	be1ff0ef          	jal	800017b8 <myproc>
    80001bdc:	8aaa                	mv	s5,a0
  if((np = allocproc()) == 0){
    80001bde:	d9dff0ef          	jal	8000197a <allocproc>
    80001be2:	0e050e63          	beqz	a0,80001cde <fork+0x112>
    80001be6:	ec4e                	sd	s3,24(sp)
    80001be8:	89aa                	mv	s3,a0
  if(uvmcopy(p->pagetable, np->pagetable, p->sz) < 0){
    80001bea:	050ab603          	ld	a2,80(s5) # 200050 <_entry-0x7fdfffb0>
    80001bee:	6d2c                	ld	a1,88(a0)
    80001bf0:	058ab503          	ld	a0,88(s5)
    80001bf4:	b62ff0ef          	jal	80000f56 <uvmcopy>
    80001bf8:	04054a63          	bltz	a0,80001c4c <fork+0x80>
    80001bfc:	f426                	sd	s1,40(sp)
    80001bfe:	e852                	sd	s4,16(sp)
  np->sz = p->sz;
    80001c00:	050ab783          	ld	a5,80(s5)
    80001c04:	04f9b823          	sd	a5,80(s3)
  *(np->trapframe) = *(p->trapframe);
    80001c08:	060ab683          	ld	a3,96(s5)
    80001c0c:	87b6                	mv	a5,a3
    80001c0e:	0609b703          	ld	a4,96(s3)
    80001c12:	12068693          	addi	a3,a3,288
    80001c16:	0007b803          	ld	a6,0(a5) # 200000 <_entry-0x7fe00000>
    80001c1a:	6788                	ld	a0,8(a5)
    80001c1c:	6b8c                	ld	a1,16(a5)
    80001c1e:	6f90                	ld	a2,24(a5)
    80001c20:	01073023          	sd	a6,0(a4) # ffffffffffe00000 <end+0xffffffff7fdda108>
    80001c24:	e708                	sd	a0,8(a4)
    80001c26:	eb0c                	sd	a1,16(a4)
    80001c28:	ef10                	sd	a2,24(a4)
    80001c2a:	02078793          	addi	a5,a5,32
    80001c2e:	02070713          	addi	a4,a4,32
    80001c32:	fed792e3          	bne	a5,a3,80001c16 <fork+0x4a>
  np->trapframe->a0 = 0;
    80001c36:	0609b783          	ld	a5,96(s3)
    80001c3a:	0607b823          	sd	zero,112(a5)
  for(i = 0; i < NOFILE; i++)
    80001c3e:	0d8a8493          	addi	s1,s5,216
    80001c42:	0d898913          	addi	s2,s3,216
    80001c46:	158a8a13          	addi	s4,s5,344
    80001c4a:	a831                	j	80001c66 <fork+0x9a>
    freeproc(np);
    80001c4c:	854e                	mv	a0,s3
    80001c4e:	cddff0ef          	jal	8000192a <freeproc>
    release(&np->lock);
    80001c52:	854e                	mv	a0,s3
    80001c54:	36f040ef          	jal	800067c2 <release>
    return -1;
    80001c58:	597d                	li	s2,-1
    80001c5a:	69e2                	ld	s3,24(sp)
    80001c5c:	a895                	j	80001cd0 <fork+0x104>
  for(i = 0; i < NOFILE; i++)
    80001c5e:	04a1                	addi	s1,s1,8
    80001c60:	0921                	addi	s2,s2,8
    80001c62:	01448963          	beq	s1,s4,80001c74 <fork+0xa8>
    if(p->ofile[i])
    80001c66:	6088                	ld	a0,0(s1)
    80001c68:	d97d                	beqz	a0,80001c5e <fork+0x92>
      np->ofile[i] = filedup(p->ofile[i]);
    80001c6a:	604020ef          	jal	8000426e <filedup>
    80001c6e:	00a93023          	sd	a0,0(s2)
    80001c72:	b7f5                	j	80001c5e <fork+0x92>
  np->cwd = idup(p->cwd);
    80001c74:	158ab503          	ld	a0,344(s5)
    80001c78:	157010ef          	jal	800035ce <idup>
    80001c7c:	14a9bc23          	sd	a0,344(s3)
  safestrcpy(np->name, p->name, sizeof(p->name));
    80001c80:	4641                	li	a2,16
    80001c82:	160a8593          	addi	a1,s5,352
    80001c86:	16098513          	addi	a0,s3,352
    80001c8a:	963fe0ef          	jal	800005ec <safestrcpy>
  np->tracemask = p->tracemask; // <--- 添加的行
    80001c8e:	170aa783          	lw	a5,368(s5)
    80001c92:	16f9a823          	sw	a5,368(s3)
  pid = np->pid;
    80001c96:	0389a903          	lw	s2,56(s3)
  release(&np->lock);
    80001c9a:	854e                	mv	a0,s3
    80001c9c:	327040ef          	jal	800067c2 <release>
  acquire(&wait_lock);
    80001ca0:	0000a497          	auipc	s1,0xa
    80001ca4:	46048493          	addi	s1,s1,1120 # 8000c100 <wait_lock>
    80001ca8:	8526                	mv	a0,s1
    80001caa:	24d040ef          	jal	800066f6 <acquire>
  np->parent = p;
    80001cae:	0559b023          	sd	s5,64(s3)
  release(&wait_lock);
    80001cb2:	8526                	mv	a0,s1
    80001cb4:	30f040ef          	jal	800067c2 <release>
  acquire(&np->lock);
    80001cb8:	854e                	mv	a0,s3
    80001cba:	23d040ef          	jal	800066f6 <acquire>
  np->state = RUNNABLE;
    80001cbe:	478d                	li	a5,3
    80001cc0:	02f9a023          	sw	a5,32(s3)
  release(&np->lock);
    80001cc4:	854e                	mv	a0,s3
    80001cc6:	2fd040ef          	jal	800067c2 <release>
  return pid;
    80001cca:	74a2                	ld	s1,40(sp)
    80001ccc:	69e2                	ld	s3,24(sp)
    80001cce:	6a42                	ld	s4,16(sp)
}
    80001cd0:	854a                	mv	a0,s2
    80001cd2:	70e2                	ld	ra,56(sp)
    80001cd4:	7442                	ld	s0,48(sp)
    80001cd6:	7902                	ld	s2,32(sp)
    80001cd8:	6aa2                	ld	s5,8(sp)
    80001cda:	6121                	addi	sp,sp,64
    80001cdc:	8082                	ret
    return -1;
    80001cde:	597d                	li	s2,-1
    80001ce0:	bfc5                	j	80001cd0 <fork+0x104>

0000000080001ce2 <scheduler>:
{
    80001ce2:	7139                	addi	sp,sp,-64
    80001ce4:	fc06                	sd	ra,56(sp)
    80001ce6:	f822                	sd	s0,48(sp)
    80001ce8:	f426                	sd	s1,40(sp)
    80001cea:	f04a                	sd	s2,32(sp)
    80001cec:	ec4e                	sd	s3,24(sp)
    80001cee:	e852                	sd	s4,16(sp)
    80001cf0:	e456                	sd	s5,8(sp)
    80001cf2:	e05a                	sd	s6,0(sp)
    80001cf4:	0080                	addi	s0,sp,64
    80001cf6:	8792                	mv	a5,tp
  int id = r_tp();
    80001cf8:	2781                	sext.w	a5,a5
  c->proc = 0;
    80001cfa:	00779a93          	slli	s5,a5,0x7
    80001cfe:	0000a717          	auipc	a4,0xa
    80001d02:	3e270713          	addi	a4,a4,994 # 8000c0e0 <pid_lock>
    80001d06:	9756                	add	a4,a4,s5
    80001d08:	04073023          	sd	zero,64(a4)
        swtch(&c->context, &p->context); // Context switch
    80001d0c:	0000a717          	auipc	a4,0xa
    80001d10:	41c70713          	addi	a4,a4,1052 # 8000c128 <cpus+0x8>
    80001d14:	9aba                	add	s5,s5,a4
      if(p->state == RUNNABLE) {
    80001d16:	498d                	li	s3,3
        p->state = RUNNING;
    80001d18:	4b11                	li	s6,4
        c->proc = p;
    80001d1a:	079e                	slli	a5,a5,0x7
    80001d1c:	0000aa17          	auipc	s4,0xa
    80001d20:	3c4a0a13          	addi	s4,s4,964 # 8000c0e0 <pid_lock>
    80001d24:	9a3e                	add	s4,s4,a5
    for(p = proc; p < &proc[NPROC]; p++) {
    80001d26:	00010917          	auipc	s2,0x10
    80001d2a:	5fa90913          	addi	s2,s2,1530 # 80012320 <tickslock>
  asm volatile("csrr %0, sstatus" : "=r" (x) );
    80001d2e:	100027f3          	csrr	a5,sstatus
  w_sstatus(r_sstatus() | SSTATUS_SIE);
    80001d32:	0027e793          	ori	a5,a5,2
  asm volatile("csrw sstatus, %0" : : "r" (x));
    80001d36:	10079073          	csrw	sstatus,a5
    80001d3a:	0000a497          	auipc	s1,0xa
    80001d3e:	7e648493          	addi	s1,s1,2022 # 8000c520 <proc>
    80001d42:	a801                	j	80001d52 <scheduler+0x70>
      release(&p->lock);
    80001d44:	8526                	mv	a0,s1
    80001d46:	27d040ef          	jal	800067c2 <release>
    for(p = proc; p < &proc[NPROC]; p++) {
    80001d4a:	17848493          	addi	s1,s1,376
    80001d4e:	ff2480e3          	beq	s1,s2,80001d2e <scheduler+0x4c>
      acquire(&p->lock);
    80001d52:	8526                	mv	a0,s1
    80001d54:	1a3040ef          	jal	800066f6 <acquire>
      if(p->state == RUNNABLE) {
    80001d58:	509c                	lw	a5,32(s1)
    80001d5a:	ff3795e3          	bne	a5,s3,80001d44 <scheduler+0x62>
        p->state = RUNNING;
    80001d5e:	0364a023          	sw	s6,32(s1)
        c->proc = p;
    80001d62:	049a3023          	sd	s1,64(s4)
        swtch(&c->context, &p->context); // Context switch
    80001d66:	06848593          	addi	a1,s1,104
    80001d6a:	8556                	mv	a0,s5
    80001d6c:	5bc000ef          	jal	80002328 <swtch>
        c->proc = 0;
    80001d70:	040a3023          	sd	zero,64(s4)
    80001d74:	bfc1                	j	80001d44 <scheduler+0x62>

0000000080001d76 <sched>:
{
    80001d76:	7179                	addi	sp,sp,-48
    80001d78:	f406                	sd	ra,40(sp)
    80001d7a:	f022                	sd	s0,32(sp)
    80001d7c:	ec26                	sd	s1,24(sp)
    80001d7e:	e84a                	sd	s2,16(sp)
    80001d80:	e44e                	sd	s3,8(sp)
    80001d82:	1800                	addi	s0,sp,48
  struct proc *p = myproc();
    80001d84:	a35ff0ef          	jal	800017b8 <myproc>
    80001d88:	84aa                	mv	s1,a0
  if(!holding(&p->lock))
    80001d8a:	0fd040ef          	jal	80006686 <holding>
    80001d8e:	c92d                	beqz	a0,80001e00 <sched+0x8a>
  asm volatile("mv %0, tp" : "=r" (x) );
    80001d90:	8792                	mv	a5,tp
  if(mycpu()->noff != 1)
    80001d92:	2781                	sext.w	a5,a5
    80001d94:	079e                	slli	a5,a5,0x7
    80001d96:	0000a717          	auipc	a4,0xa
    80001d9a:	34a70713          	addi	a4,a4,842 # 8000c0e0 <pid_lock>
    80001d9e:	97ba                	add	a5,a5,a4
    80001da0:	0b87a703          	lw	a4,184(a5)
    80001da4:	4785                	li	a5,1
    80001da6:	06f71363          	bne	a4,a5,80001e0c <sched+0x96>
  if(p->state == RUNNING)
    80001daa:	5098                	lw	a4,32(s1)
    80001dac:	4791                	li	a5,4
    80001dae:	06f70563          	beq	a4,a5,80001e18 <sched+0xa2>
  asm volatile("csrr %0, sstatus" : "=r" (x) );
    80001db2:	100027f3          	csrr	a5,sstatus
  return (x & SSTATUS_SIE) != 0;
    80001db6:	8b89                	andi	a5,a5,2
  if(intr_get())
    80001db8:	e7b5                	bnez	a5,80001e24 <sched+0xae>
  asm volatile("mv %0, tp" : "=r" (x) );
    80001dba:	8792                	mv	a5,tp
  intena = mycpu()->intena;
    80001dbc:	0000a917          	auipc	s2,0xa
    80001dc0:	32490913          	addi	s2,s2,804 # 8000c0e0 <pid_lock>
    80001dc4:	2781                	sext.w	a5,a5
    80001dc6:	079e                	slli	a5,a5,0x7
    80001dc8:	97ca                	add	a5,a5,s2
    80001dca:	0bc7a983          	lw	s3,188(a5)
    80001dce:	8792                	mv	a5,tp
  swtch(&p->context, &mycpu()->context);
    80001dd0:	2781                	sext.w	a5,a5
    80001dd2:	079e                	slli	a5,a5,0x7
    80001dd4:	0000a597          	auipc	a1,0xa
    80001dd8:	35458593          	addi	a1,a1,852 # 8000c128 <cpus+0x8>
    80001ddc:	95be                	add	a1,a1,a5
    80001dde:	06848513          	addi	a0,s1,104
    80001de2:	546000ef          	jal	80002328 <swtch>
    80001de6:	8792                	mv	a5,tp
  mycpu()->intena = intena;
    80001de8:	2781                	sext.w	a5,a5
    80001dea:	079e                	slli	a5,a5,0x7
    80001dec:	993e                	add	s2,s2,a5
    80001dee:	0b392e23          	sw	s3,188(s2)
}
    80001df2:	70a2                	ld	ra,40(sp)
    80001df4:	7402                	ld	s0,32(sp)
    80001df6:	64e2                	ld	s1,24(sp)
    80001df8:	6942                	ld	s2,16(sp)
    80001dfa:	69a2                	ld	s3,8(sp)
    80001dfc:	6145                	addi	sp,sp,48
    80001dfe:	8082                	ret
    panic("sched p->lock");
    80001e00:	00006517          	auipc	a0,0x6
    80001e04:	7b050513          	addi	a0,a0,1968 # 800085b0 <etext+0x5b0>
    80001e08:	59a040ef          	jal	800063a2 <panic>
    panic("sched locks");
    80001e0c:	00006517          	auipc	a0,0x6
    80001e10:	7b450513          	addi	a0,a0,1972 # 800085c0 <etext+0x5c0>
    80001e14:	58e040ef          	jal	800063a2 <panic>
    panic("sched running");
    80001e18:	00006517          	auipc	a0,0x6
    80001e1c:	7b850513          	addi	a0,a0,1976 # 800085d0 <etext+0x5d0>
    80001e20:	582040ef          	jal	800063a2 <panic>
    panic("sched interruptible");
    80001e24:	00006517          	auipc	a0,0x6
    80001e28:	7bc50513          	addi	a0,a0,1980 # 800085e0 <etext+0x5e0>
    80001e2c:	576040ef          	jal	800063a2 <panic>

0000000080001e30 <yield>:
{
    80001e30:	1101                	addi	sp,sp,-32
    80001e32:	ec06                	sd	ra,24(sp)
    80001e34:	e822                	sd	s0,16(sp)
    80001e36:	e426                	sd	s1,8(sp)
    80001e38:	1000                	addi	s0,sp,32
  struct proc *p = myproc();
    80001e3a:	97fff0ef          	jal	800017b8 <myproc>
    80001e3e:	84aa                	mv	s1,a0
  acquire(&p->lock);
    80001e40:	0b7040ef          	jal	800066f6 <acquire>
  p->state = RUNNABLE;
    80001e44:	478d                	li	a5,3
    80001e46:	d09c                	sw	a5,32(s1)
  sched();
    80001e48:	f2fff0ef          	jal	80001d76 <sched>
  release(&p->lock);
    80001e4c:	8526                	mv	a0,s1
    80001e4e:	175040ef          	jal	800067c2 <release>
}
    80001e52:	60e2                	ld	ra,24(sp)
    80001e54:	6442                	ld	s0,16(sp)
    80001e56:	64a2                	ld	s1,8(sp)
    80001e58:	6105                	addi	sp,sp,32
    80001e5a:	8082                	ret

0000000080001e5c <sleep>:

// Atomically release lock and sleep on chan.
// Reacquires lock when awakened.
void
sleep(void *chan, struct spinlock *lk)
{
    80001e5c:	7179                	addi	sp,sp,-48
    80001e5e:	f406                	sd	ra,40(sp)
    80001e60:	f022                	sd	s0,32(sp)
    80001e62:	ec26                	sd	s1,24(sp)
    80001e64:	e84a                	sd	s2,16(sp)
    80001e66:	e44e                	sd	s3,8(sp)
    80001e68:	1800                	addi	s0,sp,48
    80001e6a:	89aa                	mv	s3,a0
    80001e6c:	892e                	mv	s2,a1
  struct proc *p = myproc();
    80001e6e:	94bff0ef          	jal	800017b8 <myproc>
    80001e72:	84aa                	mv	s1,a0
  // Once we hold p->lock, we can be
  // guaranteed that we won't miss any wakeup
  // (wakeup locks p->lock),
  // so it's okay to release lk.

  acquire(&p->lock);  //DOC: sleeplock1
    80001e74:	083040ef          	jal	800066f6 <acquire>
  release(lk);
    80001e78:	854a                	mv	a0,s2
    80001e7a:	149040ef          	jal	800067c2 <release>

  // Go to sleep.
  p->chan = chan;
    80001e7e:	0334b423          	sd	s3,40(s1)
  p->state = SLEEPING;
    80001e82:	4789                	li	a5,2
    80001e84:	d09c                	sw	a5,32(s1)

  sched();
    80001e86:	ef1ff0ef          	jal	80001d76 <sched>

  // Tidy up.
  p->chan = 0;
    80001e8a:	0204b423          	sd	zero,40(s1)

  // Reacquire original lock.
  release(&p->lock);
    80001e8e:	8526                	mv	a0,s1
    80001e90:	133040ef          	jal	800067c2 <release>
  acquire(lk);
    80001e94:	854a                	mv	a0,s2
    80001e96:	061040ef          	jal	800066f6 <acquire>
}
    80001e9a:	70a2                	ld	ra,40(sp)
    80001e9c:	7402                	ld	s0,32(sp)
    80001e9e:	64e2                	ld	s1,24(sp)
    80001ea0:	6942                	ld	s2,16(sp)
    80001ea2:	69a2                	ld	s3,8(sp)
    80001ea4:	6145                	addi	sp,sp,48
    80001ea6:	8082                	ret

0000000080001ea8 <wakeup>:

// Wake up all processes sleeping on chan.
// Must be called without any p->lock.
void
wakeup(void *chan)
{
    80001ea8:	7139                	addi	sp,sp,-64
    80001eaa:	fc06                	sd	ra,56(sp)
    80001eac:	f822                	sd	s0,48(sp)
    80001eae:	f426                	sd	s1,40(sp)
    80001eb0:	f04a                	sd	s2,32(sp)
    80001eb2:	ec4e                	sd	s3,24(sp)
    80001eb4:	e852                	sd	s4,16(sp)
    80001eb6:	e456                	sd	s5,8(sp)
    80001eb8:	0080                	addi	s0,sp,64
    80001eba:	8a2a                	mv	s4,a0
  struct proc *p;

  for(p = proc; p < &proc[NPROC]; p++) {
    80001ebc:	0000a497          	auipc	s1,0xa
    80001ec0:	66448493          	addi	s1,s1,1636 # 8000c520 <proc>
    if(p != myproc()){
      acquire(&p->lock);
      if(p->state == SLEEPING && p->chan == chan) {
    80001ec4:	4989                	li	s3,2
        p->state = RUNNABLE;
    80001ec6:	4a8d                	li	s5,3
  for(p = proc; p < &proc[NPROC]; p++) {
    80001ec8:	00010917          	auipc	s2,0x10
    80001ecc:	45890913          	addi	s2,s2,1112 # 80012320 <tickslock>
    80001ed0:	a801                	j	80001ee0 <wakeup+0x38>
      }
      release(&p->lock);
    80001ed2:	8526                	mv	a0,s1
    80001ed4:	0ef040ef          	jal	800067c2 <release>
  for(p = proc; p < &proc[NPROC]; p++) {
    80001ed8:	17848493          	addi	s1,s1,376
    80001edc:	03248263          	beq	s1,s2,80001f00 <wakeup+0x58>
    if(p != myproc()){
    80001ee0:	8d9ff0ef          	jal	800017b8 <myproc>
    80001ee4:	fea48ae3          	beq	s1,a0,80001ed8 <wakeup+0x30>
      acquire(&p->lock);
    80001ee8:	8526                	mv	a0,s1
    80001eea:	00d040ef          	jal	800066f6 <acquire>
      if(p->state == SLEEPING && p->chan == chan) {
    80001eee:	509c                	lw	a5,32(s1)
    80001ef0:	ff3791e3          	bne	a5,s3,80001ed2 <wakeup+0x2a>
    80001ef4:	749c                	ld	a5,40(s1)
    80001ef6:	fd479ee3          	bne	a5,s4,80001ed2 <wakeup+0x2a>
        p->state = RUNNABLE;
    80001efa:	0354a023          	sw	s5,32(s1)
    80001efe:	bfd1                	j	80001ed2 <wakeup+0x2a>
    }
  }
}
    80001f00:	70e2                	ld	ra,56(sp)
    80001f02:	7442                	ld	s0,48(sp)
    80001f04:	74a2                	ld	s1,40(sp)
    80001f06:	7902                	ld	s2,32(sp)
    80001f08:	69e2                	ld	s3,24(sp)
    80001f0a:	6a42                	ld	s4,16(sp)
    80001f0c:	6aa2                	ld	s5,8(sp)
    80001f0e:	6121                	addi	sp,sp,64
    80001f10:	8082                	ret

0000000080001f12 <reparent>:
{
    80001f12:	7179                	addi	sp,sp,-48
    80001f14:	f406                	sd	ra,40(sp)
    80001f16:	f022                	sd	s0,32(sp)
    80001f18:	ec26                	sd	s1,24(sp)
    80001f1a:	e84a                	sd	s2,16(sp)
    80001f1c:	e44e                	sd	s3,8(sp)
    80001f1e:	e052                	sd	s4,0(sp)
    80001f20:	1800                	addi	s0,sp,48
    80001f22:	892a                	mv	s2,a0
  for(pp = proc; pp < &proc[NPROC]; pp++){
    80001f24:	0000a497          	auipc	s1,0xa
    80001f28:	5fc48493          	addi	s1,s1,1532 # 8000c520 <proc>
      pp->parent = initproc;
    80001f2c:	0000aa17          	auipc	s4,0xa
    80001f30:	faca0a13          	addi	s4,s4,-84 # 8000bed8 <initproc>
  for(pp = proc; pp < &proc[NPROC]; pp++){
    80001f34:	00010997          	auipc	s3,0x10
    80001f38:	3ec98993          	addi	s3,s3,1004 # 80012320 <tickslock>
    80001f3c:	a029                	j	80001f46 <reparent+0x34>
    80001f3e:	17848493          	addi	s1,s1,376
    80001f42:	01348b63          	beq	s1,s3,80001f58 <reparent+0x46>
    if(pp->parent == p){
    80001f46:	60bc                	ld	a5,64(s1)
    80001f48:	ff279be3          	bne	a5,s2,80001f3e <reparent+0x2c>
      pp->parent = initproc;
    80001f4c:	000a3503          	ld	a0,0(s4)
    80001f50:	e0a8                	sd	a0,64(s1)
      wakeup(initproc);
    80001f52:	f57ff0ef          	jal	80001ea8 <wakeup>
    80001f56:	b7e5                	j	80001f3e <reparent+0x2c>
}
    80001f58:	70a2                	ld	ra,40(sp)
    80001f5a:	7402                	ld	s0,32(sp)
    80001f5c:	64e2                	ld	s1,24(sp)
    80001f5e:	6942                	ld	s2,16(sp)
    80001f60:	69a2                	ld	s3,8(sp)
    80001f62:	6a02                	ld	s4,0(sp)
    80001f64:	6145                	addi	sp,sp,48
    80001f66:	8082                	ret

0000000080001f68 <exit>:
{
    80001f68:	7179                	addi	sp,sp,-48
    80001f6a:	f406                	sd	ra,40(sp)
    80001f6c:	f022                	sd	s0,32(sp)
    80001f6e:	ec26                	sd	s1,24(sp)
    80001f70:	e84a                	sd	s2,16(sp)
    80001f72:	e44e                	sd	s3,8(sp)
    80001f74:	e052                	sd	s4,0(sp)
    80001f76:	1800                	addi	s0,sp,48
    80001f78:	8a2a                	mv	s4,a0
  struct proc *p = myproc();
    80001f7a:	83fff0ef          	jal	800017b8 <myproc>
    80001f7e:	89aa                	mv	s3,a0
  if(p == initproc)
    80001f80:	0000a797          	auipc	a5,0xa
    80001f84:	f587b783          	ld	a5,-168(a5) # 8000bed8 <initproc>
    80001f88:	0d850493          	addi	s1,a0,216
    80001f8c:	15850913          	addi	s2,a0,344
    80001f90:	00a79f63          	bne	a5,a0,80001fae <exit+0x46>
    panic("init exiting");
    80001f94:	00006517          	auipc	a0,0x6
    80001f98:	66450513          	addi	a0,a0,1636 # 800085f8 <etext+0x5f8>
    80001f9c:	406040ef          	jal	800063a2 <panic>
      fileclose(f);
    80001fa0:	314020ef          	jal	800042b4 <fileclose>
      p->ofile[fd] = 0;
    80001fa4:	0004b023          	sd	zero,0(s1)
  for(int fd = 0; fd < NOFILE; fd++){
    80001fa8:	04a1                	addi	s1,s1,8
    80001faa:	01248563          	beq	s1,s2,80001fb4 <exit+0x4c>
    if(p->ofile[fd]){
    80001fae:	6088                	ld	a0,0(s1)
    80001fb0:	f965                	bnez	a0,80001fa0 <exit+0x38>
    80001fb2:	bfdd                	j	80001fa8 <exit+0x40>
  begin_op();
    80001fb4:	6e7010ef          	jal	80003e9a <begin_op>
  iput(p->cwd);
    80001fb8:	1589b503          	ld	a0,344(s3)
    80001fbc:	7ca010ef          	jal	80003786 <iput>
  end_op();
    80001fc0:	745010ef          	jal	80003f04 <end_op>
  p->cwd = 0;
    80001fc4:	1409bc23          	sd	zero,344(s3)
  acquire(&wait_lock);
    80001fc8:	0000a497          	auipc	s1,0xa
    80001fcc:	13848493          	addi	s1,s1,312 # 8000c100 <wait_lock>
    80001fd0:	8526                	mv	a0,s1
    80001fd2:	724040ef          	jal	800066f6 <acquire>
  reparent(p);
    80001fd6:	854e                	mv	a0,s3
    80001fd8:	f3bff0ef          	jal	80001f12 <reparent>
  wakeup(p->parent);
    80001fdc:	0409b503          	ld	a0,64(s3)
    80001fe0:	ec9ff0ef          	jal	80001ea8 <wakeup>
  acquire(&p->lock);
    80001fe4:	854e                	mv	a0,s3
    80001fe6:	710040ef          	jal	800066f6 <acquire>
  p->xstate = status;
    80001fea:	0349aa23          	sw	s4,52(s3)
  p->state = ZOMBIE;
    80001fee:	4795                	li	a5,5
    80001ff0:	02f9a023          	sw	a5,32(s3)
  release(&wait_lock);
    80001ff4:	8526                	mv	a0,s1
    80001ff6:	7cc040ef          	jal	800067c2 <release>
  sched();
    80001ffa:	d7dff0ef          	jal	80001d76 <sched>
  panic("zombie exit");
    80001ffe:	00006517          	auipc	a0,0x6
    80002002:	60a50513          	addi	a0,a0,1546 # 80008608 <etext+0x608>
    80002006:	39c040ef          	jal	800063a2 <panic>

000000008000200a <kill>:
// Kill the process with the given pid.
// The victim won't exit until it tries to return
// to user space (see usertrap() in trap.c).
int
kill(int pid)
{
    8000200a:	7179                	addi	sp,sp,-48
    8000200c:	f406                	sd	ra,40(sp)
    8000200e:	f022                	sd	s0,32(sp)
    80002010:	ec26                	sd	s1,24(sp)
    80002012:	e84a                	sd	s2,16(sp)
    80002014:	e44e                	sd	s3,8(sp)
    80002016:	1800                	addi	s0,sp,48
    80002018:	892a                	mv	s2,a0
  struct proc *p;

  for(p = proc; p < &proc[NPROC]; p++){
    8000201a:	0000a497          	auipc	s1,0xa
    8000201e:	50648493          	addi	s1,s1,1286 # 8000c520 <proc>
    80002022:	00010997          	auipc	s3,0x10
    80002026:	2fe98993          	addi	s3,s3,766 # 80012320 <tickslock>
    acquire(&p->lock);
    8000202a:	8526                	mv	a0,s1
    8000202c:	6ca040ef          	jal	800066f6 <acquire>
    if(p->pid == pid){
    80002030:	5c9c                	lw	a5,56(s1)
    80002032:	01278b63          	beq	a5,s2,80002048 <kill+0x3e>
        p->state = RUNNABLE;
      }
      release(&p->lock);
      return 0;
    }
    release(&p->lock);
    80002036:	8526                	mv	a0,s1
    80002038:	78a040ef          	jal	800067c2 <release>
  for(p = proc; p < &proc[NPROC]; p++){
    8000203c:	17848493          	addi	s1,s1,376
    80002040:	ff3495e3          	bne	s1,s3,8000202a <kill+0x20>
  }
  return -1;
    80002044:	557d                	li	a0,-1
    80002046:	a819                	j	8000205c <kill+0x52>
      p->killed = 1;
    80002048:	4785                	li	a5,1
    8000204a:	d89c                	sw	a5,48(s1)
      if(p->state == SLEEPING){
    8000204c:	5098                	lw	a4,32(s1)
    8000204e:	4789                	li	a5,2
    80002050:	00f70d63          	beq	a4,a5,8000206a <kill+0x60>
      release(&p->lock);
    80002054:	8526                	mv	a0,s1
    80002056:	76c040ef          	jal	800067c2 <release>
      return 0;
    8000205a:	4501                	li	a0,0
}
    8000205c:	70a2                	ld	ra,40(sp)
    8000205e:	7402                	ld	s0,32(sp)
    80002060:	64e2                	ld	s1,24(sp)
    80002062:	6942                	ld	s2,16(sp)
    80002064:	69a2                	ld	s3,8(sp)
    80002066:	6145                	addi	sp,sp,48
    80002068:	8082                	ret
        p->state = RUNNABLE;
    8000206a:	478d                	li	a5,3
    8000206c:	d09c                	sw	a5,32(s1)
    8000206e:	b7dd                	j	80002054 <kill+0x4a>

0000000080002070 <setkilled>:

void
setkilled(struct proc *p)
{
    80002070:	1101                	addi	sp,sp,-32
    80002072:	ec06                	sd	ra,24(sp)
    80002074:	e822                	sd	s0,16(sp)
    80002076:	e426                	sd	s1,8(sp)
    80002078:	1000                	addi	s0,sp,32
    8000207a:	84aa                	mv	s1,a0
  acquire(&p->lock);
    8000207c:	67a040ef          	jal	800066f6 <acquire>
  p->killed = 1;
    80002080:	4785                	li	a5,1
    80002082:	d89c                	sw	a5,48(s1)
  release(&p->lock);
    80002084:	8526                	mv	a0,s1
    80002086:	73c040ef          	jal	800067c2 <release>
}
    8000208a:	60e2                	ld	ra,24(sp)
    8000208c:	6442                	ld	s0,16(sp)
    8000208e:	64a2                	ld	s1,8(sp)
    80002090:	6105                	addi	sp,sp,32
    80002092:	8082                	ret

0000000080002094 <killed>:

int
killed(struct proc *p)
{
    80002094:	1101                	addi	sp,sp,-32
    80002096:	ec06                	sd	ra,24(sp)
    80002098:	e822                	sd	s0,16(sp)
    8000209a:	e426                	sd	s1,8(sp)
    8000209c:	e04a                	sd	s2,0(sp)
    8000209e:	1000                	addi	s0,sp,32
    800020a0:	84aa                	mv	s1,a0
  int k;
  
  acquire(&p->lock);
    800020a2:	654040ef          	jal	800066f6 <acquire>
  k = p->killed;
    800020a6:	0304a903          	lw	s2,48(s1)
  release(&p->lock);
    800020aa:	8526                	mv	a0,s1
    800020ac:	716040ef          	jal	800067c2 <release>
  return k;
}
    800020b0:	854a                	mv	a0,s2
    800020b2:	60e2                	ld	ra,24(sp)
    800020b4:	6442                	ld	s0,16(sp)
    800020b6:	64a2                	ld	s1,8(sp)
    800020b8:	6902                	ld	s2,0(sp)
    800020ba:	6105                	addi	sp,sp,32
    800020bc:	8082                	ret

00000000800020be <wait>:
{
    800020be:	715d                	addi	sp,sp,-80
    800020c0:	e486                	sd	ra,72(sp)
    800020c2:	e0a2                	sd	s0,64(sp)
    800020c4:	fc26                	sd	s1,56(sp)
    800020c6:	f84a                	sd	s2,48(sp)
    800020c8:	f44e                	sd	s3,40(sp)
    800020ca:	f052                	sd	s4,32(sp)
    800020cc:	ec56                	sd	s5,24(sp)
    800020ce:	e85a                	sd	s6,16(sp)
    800020d0:	e45e                	sd	s7,8(sp)
    800020d2:	e062                	sd	s8,0(sp)
    800020d4:	0880                	addi	s0,sp,80
    800020d6:	8b2a                	mv	s6,a0
  struct proc *p = myproc();
    800020d8:	ee0ff0ef          	jal	800017b8 <myproc>
    800020dc:	892a                	mv	s2,a0
  acquire(&wait_lock);
    800020de:	0000a517          	auipc	a0,0xa
    800020e2:	02250513          	addi	a0,a0,34 # 8000c100 <wait_lock>
    800020e6:	610040ef          	jal	800066f6 <acquire>
    havekids = 0;
    800020ea:	4b81                	li	s7,0
        if(pp->state == ZOMBIE){
    800020ec:	4a15                	li	s4,5
        havekids = 1;
    800020ee:	4a85                	li	s5,1
    for(pp = proc; pp < &proc[NPROC]; pp++){
    800020f0:	00010997          	auipc	s3,0x10
    800020f4:	23098993          	addi	s3,s3,560 # 80012320 <tickslock>
    sleep(p, &wait_lock);  //DOC: wait-sleep
    800020f8:	0000ac17          	auipc	s8,0xa
    800020fc:	008c0c13          	addi	s8,s8,8 # 8000c100 <wait_lock>
    80002100:	a871                	j	8000219c <wait+0xde>
          pid = pp->pid;
    80002102:	0384a983          	lw	s3,56(s1)
          if(addr != 0 && copyout(p->pagetable, addr, (char *)&pp->xstate,
    80002106:	000b0c63          	beqz	s6,8000211e <wait+0x60>
    8000210a:	4691                	li	a3,4
    8000210c:	03448613          	addi	a2,s1,52
    80002110:	85da                	mv	a1,s6
    80002112:	05893503          	ld	a0,88(s2)
    80002116:	f87fe0ef          	jal	8000109c <copyout>
    8000211a:	02054b63          	bltz	a0,80002150 <wait+0x92>
          freeproc(pp);
    8000211e:	8526                	mv	a0,s1
    80002120:	80bff0ef          	jal	8000192a <freeproc>
          release(&pp->lock);
    80002124:	8526                	mv	a0,s1
    80002126:	69c040ef          	jal	800067c2 <release>
          release(&wait_lock);
    8000212a:	0000a517          	auipc	a0,0xa
    8000212e:	fd650513          	addi	a0,a0,-42 # 8000c100 <wait_lock>
    80002132:	690040ef          	jal	800067c2 <release>
}
    80002136:	854e                	mv	a0,s3
    80002138:	60a6                	ld	ra,72(sp)
    8000213a:	6406                	ld	s0,64(sp)
    8000213c:	74e2                	ld	s1,56(sp)
    8000213e:	7942                	ld	s2,48(sp)
    80002140:	79a2                	ld	s3,40(sp)
    80002142:	7a02                	ld	s4,32(sp)
    80002144:	6ae2                	ld	s5,24(sp)
    80002146:	6b42                	ld	s6,16(sp)
    80002148:	6ba2                	ld	s7,8(sp)
    8000214a:	6c02                	ld	s8,0(sp)
    8000214c:	6161                	addi	sp,sp,80
    8000214e:	8082                	ret
            release(&pp->lock);
    80002150:	8526                	mv	a0,s1
    80002152:	670040ef          	jal	800067c2 <release>
            release(&wait_lock);
    80002156:	0000a517          	auipc	a0,0xa
    8000215a:	faa50513          	addi	a0,a0,-86 # 8000c100 <wait_lock>
    8000215e:	664040ef          	jal	800067c2 <release>
            return -1;
    80002162:	59fd                	li	s3,-1
    80002164:	bfc9                	j	80002136 <wait+0x78>
    for(pp = proc; pp < &proc[NPROC]; pp++){
    80002166:	17848493          	addi	s1,s1,376
    8000216a:	03348063          	beq	s1,s3,8000218a <wait+0xcc>
      if(pp->parent == p){
    8000216e:	60bc                	ld	a5,64(s1)
    80002170:	ff279be3          	bne	a5,s2,80002166 <wait+0xa8>
        acquire(&pp->lock);
    80002174:	8526                	mv	a0,s1
    80002176:	580040ef          	jal	800066f6 <acquire>
        if(pp->state == ZOMBIE){
    8000217a:	509c                	lw	a5,32(s1)
    8000217c:	f94783e3          	beq	a5,s4,80002102 <wait+0x44>
        release(&pp->lock);
    80002180:	8526                	mv	a0,s1
    80002182:	640040ef          	jal	800067c2 <release>
        havekids = 1;
    80002186:	8756                	mv	a4,s5
    80002188:	bff9                	j	80002166 <wait+0xa8>
    if(!havekids || killed(p)){
    8000218a:	cf19                	beqz	a4,800021a8 <wait+0xea>
    8000218c:	854a                	mv	a0,s2
    8000218e:	f07ff0ef          	jal	80002094 <killed>
    80002192:	e919                	bnez	a0,800021a8 <wait+0xea>
    sleep(p, &wait_lock);  //DOC: wait-sleep
    80002194:	85e2                	mv	a1,s8
    80002196:	854a                	mv	a0,s2
    80002198:	cc5ff0ef          	jal	80001e5c <sleep>
    havekids = 0;
    8000219c:	875e                	mv	a4,s7
    for(pp = proc; pp < &proc[NPROC]; pp++){
    8000219e:	0000a497          	auipc	s1,0xa
    800021a2:	38248493          	addi	s1,s1,898 # 8000c520 <proc>
    800021a6:	b7e1                	j	8000216e <wait+0xb0>
      release(&wait_lock);
    800021a8:	0000a517          	auipc	a0,0xa
    800021ac:	f5850513          	addi	a0,a0,-168 # 8000c100 <wait_lock>
    800021b0:	612040ef          	jal	800067c2 <release>
      return -1;
    800021b4:	59fd                	li	s3,-1
    800021b6:	b741                	j	80002136 <wait+0x78>

00000000800021b8 <either_copyout>:
// Copy to either a user address, or kernel address,
// depending on usr_dst.
// Returns 0 on success, -1 on error.
int
either_copyout(int user_dst, uint64 dst, void *src, uint64 len)
{
    800021b8:	7179                	addi	sp,sp,-48
    800021ba:	f406                	sd	ra,40(sp)
    800021bc:	f022                	sd	s0,32(sp)
    800021be:	ec26                	sd	s1,24(sp)
    800021c0:	e84a                	sd	s2,16(sp)
    800021c2:	e44e                	sd	s3,8(sp)
    800021c4:	e052                	sd	s4,0(sp)
    800021c6:	1800                	addi	s0,sp,48
    800021c8:	84aa                	mv	s1,a0
    800021ca:	892e                	mv	s2,a1
    800021cc:	89b2                	mv	s3,a2
    800021ce:	8a36                	mv	s4,a3
  struct proc *p = myproc();
    800021d0:	de8ff0ef          	jal	800017b8 <myproc>
  if(user_dst){
    800021d4:	cc99                	beqz	s1,800021f2 <either_copyout+0x3a>
    return copyout(p->pagetable, dst, src, len);
    800021d6:	86d2                	mv	a3,s4
    800021d8:	864e                	mv	a2,s3
    800021da:	85ca                	mv	a1,s2
    800021dc:	6d28                	ld	a0,88(a0)
    800021de:	ebffe0ef          	jal	8000109c <copyout>
  } else {
    memmove((char *)dst, src, len);
    return 0;
  }
}
    800021e2:	70a2                	ld	ra,40(sp)
    800021e4:	7402                	ld	s0,32(sp)
    800021e6:	64e2                	ld	s1,24(sp)
    800021e8:	6942                	ld	s2,16(sp)
    800021ea:	69a2                	ld	s3,8(sp)
    800021ec:	6a02                	ld	s4,0(sp)
    800021ee:	6145                	addi	sp,sp,48
    800021f0:	8082                	ret
    memmove((char *)dst, src, len);
    800021f2:	000a061b          	sext.w	a2,s4
    800021f6:	85ce                	mv	a1,s3
    800021f8:	854a                	mv	a0,s2
    800021fa:	b10fe0ef          	jal	8000050a <memmove>
    return 0;
    800021fe:	8526                	mv	a0,s1
    80002200:	b7cd                	j	800021e2 <either_copyout+0x2a>

0000000080002202 <either_copyin>:
// Copy from either a user address, or kernel address,
// depending on usr_src.
// Returns 0 on success, -1 on error.
int
either_copyin(void *dst, int user_src, uint64 src, uint64 len)
{
    80002202:	7179                	addi	sp,sp,-48
    80002204:	f406                	sd	ra,40(sp)
    80002206:	f022                	sd	s0,32(sp)
    80002208:	ec26                	sd	s1,24(sp)
    8000220a:	e84a                	sd	s2,16(sp)
    8000220c:	e44e                	sd	s3,8(sp)
    8000220e:	e052                	sd	s4,0(sp)
    80002210:	1800                	addi	s0,sp,48
    80002212:	892a                	mv	s2,a0
    80002214:	84ae                	mv	s1,a1
    80002216:	89b2                	mv	s3,a2
    80002218:	8a36                	mv	s4,a3
  struct proc *p = myproc();
    8000221a:	d9eff0ef          	jal	800017b8 <myproc>
  if(user_src){
    8000221e:	cc99                	beqz	s1,8000223c <either_copyin+0x3a>
    return copyin(p->pagetable, dst, src, len);
    80002220:	86d2                	mv	a3,s4
    80002222:	864e                	mv	a2,s3
    80002224:	85ca                	mv	a1,s2
    80002226:	6d28                	ld	a0,88(a0)
    80002228:	fd3fe0ef          	jal	800011fa <copyin>
  } else {
    memmove(dst, (char*)src, len);
    return 0;
  }
}
    8000222c:	70a2                	ld	ra,40(sp)
    8000222e:	7402                	ld	s0,32(sp)
    80002230:	64e2                	ld	s1,24(sp)
    80002232:	6942                	ld	s2,16(sp)
    80002234:	69a2                	ld	s3,8(sp)
    80002236:	6a02                	ld	s4,0(sp)
    80002238:	6145                	addi	sp,sp,48
    8000223a:	8082                	ret
    memmove(dst, (char*)src, len);
    8000223c:	000a061b          	sext.w	a2,s4
    80002240:	85ce                	mv	a1,s3
    80002242:	854a                	mv	a0,s2
    80002244:	ac6fe0ef          	jal	8000050a <memmove>
    return 0;
    80002248:	8526                	mv	a0,s1
    8000224a:	b7cd                	j	8000222c <either_copyin+0x2a>

000000008000224c <procdump>:
// Print a process listing to console.  For debugging.
// Runs when user types ^P on console.
// No lock to avoid wedging a stuck machine further.
void
procdump(void)
{
    8000224c:	711d                	addi	sp,sp,-96
    8000224e:	ec86                	sd	ra,88(sp)
    80002250:	e8a2                	sd	s0,80(sp)
    80002252:	e4a6                	sd	s1,72(sp)
    80002254:	e0ca                	sd	s2,64(sp)
    80002256:	fc4e                	sd	s3,56(sp)
    80002258:	f852                	sd	s4,48(sp)
    8000225a:	f456                	sd	s5,40(sp)
    8000225c:	f05a                	sd	s6,32(sp)
    8000225e:	ec5e                	sd	s7,24(sp)
    80002260:	e862                	sd	s8,16(sp)
    80002262:	e466                	sd	s9,8(sp)
    80002264:	e06a                	sd	s10,0(sp)
    80002266:	1080                	addi	s0,sp,96
  [ZOMBIE]    "zombie"
  };
  struct proc *p;
  char *state;

  printf("\n");
    80002268:	00006517          	auipc	a0,0x6
    8000226c:	ff050513          	addi	a0,a0,-16 # 80008258 <etext+0x258>
    80002270:	661030ef          	jal	800060d0 <printf>
  for(p = proc; p < &proc[NPROC]; p++){
    80002274:	0000a917          	auipc	s2,0xa
    80002278:	40c90913          	addi	s2,s2,1036 # 8000c680 <proc+0x160>
    8000227c:	00010997          	auipc	s3,0x10
    80002280:	20498993          	addi	s3,s3,516 # 80012480 <bcache+0x140>
    if(p->state == UNUSED)
      continue;
    if(p->state >= 0 && p->state < NELEM(states) && states[p->state])
    80002284:	4c95                	li	s9,5
      state = states[p->state];
    else
      state = "???";
    80002286:	00006a17          	auipc	s4,0x6
    8000228a:	392a0a13          	addi	s4,s4,914 # 80008618 <etext+0x618>
    printf("%d %s %s", p->pid, state, p->name);
    8000228e:	00006c17          	auipc	s8,0x6
    80002292:	392c0c13          	addi	s8,s8,914 # 80008620 <etext+0x620>
    printf("\t sz=%ld kstack=%ld k_ra=%ld k_sp=%ld u_epc=%ld",
    80002296:	4b81                	li	s7,0
    80002298:	00006b17          	auipc	s6,0x6
    8000229c:	398b0b13          	addi	s6,s6,920 # 80008630 <etext+0x630>
      p->sz, p->kstack, p->context.ra, p->context.sp,
      p->trapframe ? p->trapframe->epc : 0);
    printf("\n");
    800022a0:	00006a97          	auipc	s5,0x6
    800022a4:	fb8a8a93          	addi	s5,s5,-72 # 80008258 <etext+0x258>
    if(p->state >= 0 && p->state < NELEM(states) && states[p->state])
    800022a8:	00007d17          	auipc	s10,0x7
    800022ac:	a50d0d13          	addi	s10,s10,-1456 # 80008cf8 <states.0>
    800022b0:	a835                	j	800022ec <procdump+0xa0>
    printf("%d %s %s", p->pid, state, p->name);
    800022b2:	86a6                	mv	a3,s1
    800022b4:	ed84a583          	lw	a1,-296(s1)
    800022b8:	8562                	mv	a0,s8
    800022ba:	617030ef          	jal	800060d0 <printf>
    printf("\t sz=%ld kstack=%ld k_ra=%ld k_sp=%ld u_epc=%ld",
    800022be:	ef04b583          	ld	a1,-272(s1)
    800022c2:	ee84b603          	ld	a2,-280(s1)
    800022c6:	f084b683          	ld	a3,-248(s1)
    800022ca:	f104b703          	ld	a4,-240(s1)
      p->trapframe ? p->trapframe->epc : 0);
    800022ce:	f004b503          	ld	a0,-256(s1)
    printf("\t sz=%ld kstack=%ld k_ra=%ld k_sp=%ld u_epc=%ld",
    800022d2:	87de                	mv	a5,s7
    800022d4:	c111                	beqz	a0,800022d8 <procdump+0x8c>
    800022d6:	6d1c                	ld	a5,24(a0)
    800022d8:	855a                	mv	a0,s6
    800022da:	5f7030ef          	jal	800060d0 <printf>
    printf("\n");
    800022de:	8556                	mv	a0,s5
    800022e0:	5f1030ef          	jal	800060d0 <printf>
  for(p = proc; p < &proc[NPROC]; p++){
    800022e4:	17890913          	addi	s2,s2,376
    800022e8:	03390263          	beq	s2,s3,8000230c <procdump+0xc0>
    if(p->state == UNUSED)
    800022ec:	84ca                	mv	s1,s2
    800022ee:	ec092783          	lw	a5,-320(s2)
    800022f2:	dbed                	beqz	a5,800022e4 <procdump+0x98>
      state = "???";
    800022f4:	8652                	mv	a2,s4
    if(p->state >= 0 && p->state < NELEM(states) && states[p->state])
    800022f6:	fafceee3          	bltu	s9,a5,800022b2 <procdump+0x66>
    800022fa:	02079713          	slli	a4,a5,0x20
    800022fe:	01d75793          	srli	a5,a4,0x1d
    80002302:	97ea                	add	a5,a5,s10
    80002304:	6390                	ld	a2,0(a5)
    80002306:	f655                	bnez	a2,800022b2 <procdump+0x66>
      state = "???";
    80002308:	8652                	mv	a2,s4
    8000230a:	b765                	j	800022b2 <procdump+0x66>
  }
}
    8000230c:	60e6                	ld	ra,88(sp)
    8000230e:	6446                	ld	s0,80(sp)
    80002310:	64a6                	ld	s1,72(sp)
    80002312:	6906                	ld	s2,64(sp)
    80002314:	79e2                	ld	s3,56(sp)
    80002316:	7a42                	ld	s4,48(sp)
    80002318:	7aa2                	ld	s5,40(sp)
    8000231a:	7b02                	ld	s6,32(sp)
    8000231c:	6be2                	ld	s7,24(sp)
    8000231e:	6c42                	ld	s8,16(sp)
    80002320:	6ca2                	ld	s9,8(sp)
    80002322:	6d02                	ld	s10,0(sp)
    80002324:	6125                	addi	sp,sp,96
    80002326:	8082                	ret

0000000080002328 <swtch>:
    80002328:	00153023          	sd	ra,0(a0)
    8000232c:	00253423          	sd	sp,8(a0)
    80002330:	e900                	sd	s0,16(a0)
    80002332:	ed04                	sd	s1,24(a0)
    80002334:	03253023          	sd	s2,32(a0)
    80002338:	03353423          	sd	s3,40(a0)
    8000233c:	03453823          	sd	s4,48(a0)
    80002340:	03553c23          	sd	s5,56(a0)
    80002344:	05653023          	sd	s6,64(a0)
    80002348:	05753423          	sd	s7,72(a0)
    8000234c:	05853823          	sd	s8,80(a0)
    80002350:	05953c23          	sd	s9,88(a0)
    80002354:	07a53023          	sd	s10,96(a0)
    80002358:	07b53423          	sd	s11,104(a0)
    8000235c:	0005b083          	ld	ra,0(a1)
    80002360:	0085b103          	ld	sp,8(a1)
    80002364:	6980                	ld	s0,16(a1)
    80002366:	6d84                	ld	s1,24(a1)
    80002368:	0205b903          	ld	s2,32(a1)
    8000236c:	0285b983          	ld	s3,40(a1)
    80002370:	0305ba03          	ld	s4,48(a1)
    80002374:	0385ba83          	ld	s5,56(a1)
    80002378:	0405bb03          	ld	s6,64(a1)
    8000237c:	0485bb83          	ld	s7,72(a1)
    80002380:	0505bc03          	ld	s8,80(a1)
    80002384:	0585bc83          	ld	s9,88(a1)
    80002388:	0605bd03          	ld	s10,96(a1)
    8000238c:	0685bd83          	ld	s11,104(a1)
    80002390:	8082                	ret

0000000080002392 <trapinit>:

extern int devintr();

void
trapinit(void)
{
    80002392:	1141                	addi	sp,sp,-16
    80002394:	e406                	sd	ra,8(sp)
    80002396:	e022                	sd	s0,0(sp)
    80002398:	0800                	addi	s0,sp,16
  initlock(&tickslock, "time");
    8000239a:	00006597          	auipc	a1,0x6
    8000239e:	2f658593          	addi	a1,a1,758 # 80008690 <etext+0x690>
    800023a2:	00010517          	auipc	a0,0x10
    800023a6:	f7e50513          	addi	a0,a0,-130 # 80012320 <tickslock>
    800023aa:	454040ef          	jal	800067fe <initlock>
}
    800023ae:	60a2                	ld	ra,8(sp)
    800023b0:	6402                	ld	s0,0(sp)
    800023b2:	0141                	addi	sp,sp,16
    800023b4:	8082                	ret

00000000800023b6 <trapinithart>:

// set up to take exceptions and traps while in the kernel.
void
trapinithart(void)
{
    800023b6:	1141                	addi	sp,sp,-16
    800023b8:	e422                	sd	s0,8(sp)
    800023ba:	0800                	addi	s0,sp,16
  asm volatile("csrw stvec, %0" : : "r" (x));
    800023bc:	00003797          	auipc	a5,0x3
    800023c0:	25478793          	addi	a5,a5,596 # 80005610 <kernelvec>
    800023c4:	10579073          	csrw	stvec,a5
  w_stvec((uint64)kernelvec);
}
    800023c8:	6422                	ld	s0,8(sp)
    800023ca:	0141                	addi	sp,sp,16
    800023cc:	8082                	ret

00000000800023ce <usertrapret>:
//
// return to user space
//
void
usertrapret(void)
{
    800023ce:	1141                	addi	sp,sp,-16
    800023d0:	e406                	sd	ra,8(sp)
    800023d2:	e022                	sd	s0,0(sp)
    800023d4:	0800                	addi	s0,sp,16
  struct proc *p = myproc();
    800023d6:	be2ff0ef          	jal	800017b8 <myproc>
  asm volatile("csrr %0, sstatus" : "=r" (x) );
    800023da:	100027f3          	csrr	a5,sstatus
  w_sstatus(r_sstatus() & ~SSTATUS_SIE);
    800023de:	9bf5                	andi	a5,a5,-3
  asm volatile("csrw sstatus, %0" : : "r" (x));
    800023e0:	10079073          	csrw	sstatus,a5
  // kerneltrap() to usertrap(), so turn off interrupts until
  // we're back in user space, where usertrap() is correct.
  intr_off();

  // send syscalls, interrupts, and exceptions to uservec in trampoline.S
  uint64 trampoline_uservec = TRAMPOLINE + (uservec - trampoline);
    800023e4:	00005697          	auipc	a3,0x5
    800023e8:	c1c68693          	addi	a3,a3,-996 # 80007000 <_trampoline>
    800023ec:	00005717          	auipc	a4,0x5
    800023f0:	c1470713          	addi	a4,a4,-1004 # 80007000 <_trampoline>
    800023f4:	8f15                	sub	a4,a4,a3
    800023f6:	040007b7          	lui	a5,0x4000
    800023fa:	17fd                	addi	a5,a5,-1 # 3ffffff <_entry-0x7c000001>
    800023fc:	07b2                	slli	a5,a5,0xc
    800023fe:	973e                	add	a4,a4,a5
  asm volatile("csrw stvec, %0" : : "r" (x));
    80002400:	10571073          	csrw	stvec,a4
  w_stvec(trampoline_uservec);

  // set up trapframe values that uservec will need when
  // the process next traps into the kernel.
  p->trapframe->kernel_satp = r_satp();         // kernel page table
    80002404:	7138                	ld	a4,96(a0)
  asm volatile("csrr %0, satp" : "=r" (x) );
    80002406:	18002673          	csrr	a2,satp
    8000240a:	e310                	sd	a2,0(a4)
  p->trapframe->kernel_sp = p->kstack + PGSIZE; // process's kernel stack
    8000240c:	7130                	ld	a2,96(a0)
    8000240e:	6538                	ld	a4,72(a0)
    80002410:	6585                	lui	a1,0x1
    80002412:	972e                	add	a4,a4,a1
    80002414:	e618                	sd	a4,8(a2)
  p->trapframe->kernel_trap = (uint64)usertrap;
    80002416:	7138                	ld	a4,96(a0)
    80002418:	00000617          	auipc	a2,0x0
    8000241c:	11060613          	addi	a2,a2,272 # 80002528 <usertrap>
    80002420:	eb10                	sd	a2,16(a4)
  p->trapframe->kernel_hartid = r_tp();         // hartid for cpuid()
    80002422:	7138                	ld	a4,96(a0)
  asm volatile("mv %0, tp" : "=r" (x) );
    80002424:	8612                	mv	a2,tp
    80002426:	f310                	sd	a2,32(a4)
  asm volatile("csrr %0, sstatus" : "=r" (x) );
    80002428:	10002773          	csrr	a4,sstatus
  // set up the registers that trampoline.S's sret will use
  // to get to user space.
  
  // set S Previous Privilege mode to User.
  unsigned long x = r_sstatus();
  x &= ~SSTATUS_SPP; // clear SPP to 0 for user mode
    8000242c:	eff77713          	andi	a4,a4,-257
  x |= SSTATUS_SPIE; // enable interrupts in user mode
    80002430:	02076713          	ori	a4,a4,32
  asm volatile("csrw sstatus, %0" : : "r" (x));
    80002434:	10071073          	csrw	sstatus,a4
  w_sstatus(x);

  // set S Exception Program Counter to the saved user pc.
  w_sepc(p->trapframe->epc);
    80002438:	7138                	ld	a4,96(a0)
  asm volatile("csrw sepc, %0" : : "r" (x));
    8000243a:	6f18                	ld	a4,24(a4)
    8000243c:	14171073          	csrw	sepc,a4

  // tell trampoline.S the user page table to switch to.
  uint64 satp = MAKE_SATP(p->pagetable);
    80002440:	6d28                	ld	a0,88(a0)
    80002442:	8131                	srli	a0,a0,0xc

  // jump to userret in trampoline.S at the top of memory, which 
  // switches to the user page table, restores user registers,
  // and switches to user mode with sret.
  uint64 trampoline_userret = TRAMPOLINE + (userret - trampoline);
    80002444:	00005717          	auipc	a4,0x5
    80002448:	c5870713          	addi	a4,a4,-936 # 8000709c <userret>
    8000244c:	8f15                	sub	a4,a4,a3
    8000244e:	97ba                	add	a5,a5,a4
  ((void (*)(uint64))trampoline_userret)(satp);
    80002450:	577d                	li	a4,-1
    80002452:	177e                	slli	a4,a4,0x3f
    80002454:	8d59                	or	a0,a0,a4
    80002456:	9782                	jalr	a5
}
    80002458:	60a2                	ld	ra,8(sp)
    8000245a:	6402                	ld	s0,0(sp)
    8000245c:	0141                	addi	sp,sp,16
    8000245e:	8082                	ret

0000000080002460 <clockintr>:
  w_sstatus(sstatus);
}

void
clockintr()
{
    80002460:	1101                	addi	sp,sp,-32
    80002462:	ec06                	sd	ra,24(sp)
    80002464:	e822                	sd	s0,16(sp)
    80002466:	1000                	addi	s0,sp,32
  if(cpuid() == 0){
    80002468:	b24ff0ef          	jal	8000178c <cpuid>
    8000246c:	cd11                	beqz	a0,80002488 <clockintr+0x28>
  asm volatile("csrr %0, time" : "=r" (x) );
    8000246e:	c01027f3          	rdtime	a5
  }

  // ask for the next timer interrupt. this also clears
  // the interrupt request. 1000000 is about a tenth
  // of a second.
  w_stimecmp(r_time() + 1000000);
    80002472:	000f4737          	lui	a4,0xf4
    80002476:	24070713          	addi	a4,a4,576 # f4240 <_entry-0x7ff0bdc0>
    8000247a:	97ba                	add	a5,a5,a4
  asm volatile("csrw 0x14d, %0" : : "r" (x));
    8000247c:	14d79073          	csrw	stimecmp,a5
}
    80002480:	60e2                	ld	ra,24(sp)
    80002482:	6442                	ld	s0,16(sp)
    80002484:	6105                	addi	sp,sp,32
    80002486:	8082                	ret
    80002488:	e426                	sd	s1,8(sp)
    acquire(&tickslock);
    8000248a:	00010497          	auipc	s1,0x10
    8000248e:	e9648493          	addi	s1,s1,-362 # 80012320 <tickslock>
    80002492:	8526                	mv	a0,s1
    80002494:	262040ef          	jal	800066f6 <acquire>
    ticks++;
    80002498:	0000a517          	auipc	a0,0xa
    8000249c:	a4850513          	addi	a0,a0,-1464 # 8000bee0 <ticks>
    800024a0:	411c                	lw	a5,0(a0)
    800024a2:	2785                	addiw	a5,a5,1
    800024a4:	c11c                	sw	a5,0(a0)
    wakeup(&ticks);
    800024a6:	a03ff0ef          	jal	80001ea8 <wakeup>
    release(&tickslock);
    800024aa:	8526                	mv	a0,s1
    800024ac:	316040ef          	jal	800067c2 <release>
    800024b0:	64a2                	ld	s1,8(sp)
    800024b2:	bf75                	j	8000246e <clockintr+0xe>

00000000800024b4 <devintr>:
// returns 2 if timer interrupt,
// 1 if other device,
// 0 if not recognized.
int
devintr()
{
    800024b4:	1101                	addi	sp,sp,-32
    800024b6:	ec06                	sd	ra,24(sp)
    800024b8:	e822                	sd	s0,16(sp)
    800024ba:	1000                	addi	s0,sp,32
  asm volatile("csrr %0, scause" : "=r" (x) );
    800024bc:	14202773          	csrr	a4,scause
  uint64 scause = r_scause();

  if(scause == 0x8000000000000009L){
    800024c0:	57fd                	li	a5,-1
    800024c2:	17fe                	slli	a5,a5,0x3f
    800024c4:	07a5                	addi	a5,a5,9
    800024c6:	00f70c63          	beq	a4,a5,800024de <devintr+0x2a>
    // now allowed to interrupt again.
    if(irq)
      plic_complete(irq);

    return 1;
  } else if(scause == 0x8000000000000005L){
    800024ca:	57fd                	li	a5,-1
    800024cc:	17fe                	slli	a5,a5,0x3f
    800024ce:	0795                	addi	a5,a5,5
    // timer interrupt.
    clockintr();
    return 2;
  } else {
    return 0;
    800024d0:	4501                	li	a0,0
  } else if(scause == 0x8000000000000005L){
    800024d2:	04f70763          	beq	a4,a5,80002520 <devintr+0x6c>
  }
}
    800024d6:	60e2                	ld	ra,24(sp)
    800024d8:	6442                	ld	s0,16(sp)
    800024da:	6105                	addi	sp,sp,32
    800024dc:	8082                	ret
    800024de:	e426                	sd	s1,8(sp)
    int irq = plic_claim();
    800024e0:	1dc030ef          	jal	800056bc <plic_claim>
    800024e4:	84aa                	mv	s1,a0
    if(irq == UART0_IRQ){
    800024e6:	47a9                	li	a5,10
    800024e8:	00f50963          	beq	a0,a5,800024fa <devintr+0x46>
    } else if(irq == VIRTIO0_IRQ){
    800024ec:	4785                	li	a5,1
    800024ee:	00f50963          	beq	a0,a5,80002500 <devintr+0x4c>
    return 1;
    800024f2:	4505                	li	a0,1
    } else if(irq){
    800024f4:	e889                	bnez	s1,80002506 <devintr+0x52>
    800024f6:	64a2                	ld	s1,8(sp)
    800024f8:	bff9                	j	800024d6 <devintr+0x22>
      uartintr();
    800024fa:	11a040ef          	jal	80006614 <uartintr>
    if(irq)
    800024fe:	a819                	j	80002514 <devintr+0x60>
      virtio_disk_intr();
    80002500:	682030ef          	jal	80005b82 <virtio_disk_intr>
    if(irq)
    80002504:	a801                	j	80002514 <devintr+0x60>
      printf("unexpected interrupt irq=%d\n", irq);
    80002506:	85a6                	mv	a1,s1
    80002508:	00006517          	auipc	a0,0x6
    8000250c:	19050513          	addi	a0,a0,400 # 80008698 <etext+0x698>
    80002510:	3c1030ef          	jal	800060d0 <printf>
      plic_complete(irq);
    80002514:	8526                	mv	a0,s1
    80002516:	1c6030ef          	jal	800056dc <plic_complete>
    return 1;
    8000251a:	4505                	li	a0,1
    8000251c:	64a2                	ld	s1,8(sp)
    8000251e:	bf65                	j	800024d6 <devintr+0x22>
    clockintr();
    80002520:	f41ff0ef          	jal	80002460 <clockintr>
    return 2;
    80002524:	4509                	li	a0,2
    80002526:	bf45                	j	800024d6 <devintr+0x22>

0000000080002528 <usertrap>:
{
    80002528:	1101                	addi	sp,sp,-32
    8000252a:	ec06                	sd	ra,24(sp)
    8000252c:	e822                	sd	s0,16(sp)
    8000252e:	e426                	sd	s1,8(sp)
    80002530:	e04a                	sd	s2,0(sp)
    80002532:	1000                	addi	s0,sp,32
  asm volatile("csrr %0, sstatus" : "=r" (x) );
    80002534:	100027f3          	csrr	a5,sstatus
  if((r_sstatus() & SSTATUS_SPP) != 0)
    80002538:	1007f793          	andi	a5,a5,256
    8000253c:	ef85                	bnez	a5,80002574 <usertrap+0x4c>
  asm volatile("csrw stvec, %0" : : "r" (x));
    8000253e:	00003797          	auipc	a5,0x3
    80002542:	0d278793          	addi	a5,a5,210 # 80005610 <kernelvec>
    80002546:	10579073          	csrw	stvec,a5
  struct proc *p = myproc();
    8000254a:	a6eff0ef          	jal	800017b8 <myproc>
    8000254e:	84aa                	mv	s1,a0
  p->trapframe->epc = r_sepc();
    80002550:	713c                	ld	a5,96(a0)
  asm volatile("csrr %0, sepc" : "=r" (x) );
    80002552:	14102773          	csrr	a4,sepc
    80002556:	ef98                	sd	a4,24(a5)
  asm volatile("csrr %0, scause" : "=r" (x) );
    80002558:	14202773          	csrr	a4,scause
  if(r_scause() == 8){
    8000255c:	47a1                	li	a5,8
    8000255e:	02f70163          	beq	a4,a5,80002580 <usertrap+0x58>
  } else if((which_dev = devintr()) != 0){
    80002562:	f53ff0ef          	jal	800024b4 <devintr>
    80002566:	892a                	mv	s2,a0
    80002568:	c135                	beqz	a0,800025cc <usertrap+0xa4>
  if(killed(p)) // p is myproc()
    8000256a:	8526                	mv	a0,s1
    8000256c:	b29ff0ef          	jal	80002094 <killed>
    80002570:	cd1d                	beqz	a0,800025ae <usertrap+0x86>
    80002572:	a81d                	j	800025a8 <usertrap+0x80>
    panic("usertrap: not from user mode");
    80002574:	00006517          	auipc	a0,0x6
    80002578:	14450513          	addi	a0,a0,324 # 800086b8 <etext+0x6b8>
    8000257c:	627030ef          	jal	800063a2 <panic>
    if(killed(p))
    80002580:	b15ff0ef          	jal	80002094 <killed>
    80002584:	e121                	bnez	a0,800025c4 <usertrap+0x9c>
    p->trapframe->epc += 4;
    80002586:	70b8                	ld	a4,96(s1)
    80002588:	6f1c                	ld	a5,24(a4)
    8000258a:	0791                	addi	a5,a5,4
    8000258c:	ef1c                	sd	a5,24(a4)
  asm volatile("csrr %0, sstatus" : "=r" (x) );
    8000258e:	100027f3          	csrr	a5,sstatus
  w_sstatus(r_sstatus() | SSTATUS_SIE);
    80002592:	0027e793          	ori	a5,a5,2
  asm volatile("csrw sstatus, %0" : : "r" (x));
    80002596:	10079073          	csrw	sstatus,a5
    syscall();
    8000259a:	24c000ef          	jal	800027e6 <syscall>
  if(killed(p)) // p is myproc()
    8000259e:	8526                	mv	a0,s1
    800025a0:	af5ff0ef          	jal	80002094 <killed>
    800025a4:	c901                	beqz	a0,800025b4 <usertrap+0x8c>
    800025a6:	4901                	li	s2,0
  exit(-1);
    800025a8:	557d                	li	a0,-1
    800025aa:	9bfff0ef          	jal	80001f68 <exit>
if(which_dev == 2) { // Timer interrupt
    800025ae:	4789                	li	a5,2
    800025b0:	04f90563          	beq	s2,a5,800025fa <usertrap+0xd2>
usertrapret();
    800025b4:	e1bff0ef          	jal	800023ce <usertrapret>
}
    800025b8:	60e2                	ld	ra,24(sp)
    800025ba:	6442                	ld	s0,16(sp)
    800025bc:	64a2                	ld	s1,8(sp)
    800025be:	6902                	ld	s2,0(sp)
    800025c0:	6105                	addi	sp,sp,32
    800025c2:	8082                	ret
      exit(-1);
    800025c4:	557d                	li	a0,-1
    800025c6:	9a3ff0ef          	jal	80001f68 <exit>
    800025ca:	bf75                	j	80002586 <usertrap+0x5e>
  asm volatile("csrr %0, scause" : "=r" (x) );
    800025cc:	142025f3          	csrr	a1,scause
    printf("usertrap(): unexpected scause 0x%lx pid=%d\n", r_scause(), p->pid);
    800025d0:	5c90                	lw	a2,56(s1)
    800025d2:	00006517          	auipc	a0,0x6
    800025d6:	10650513          	addi	a0,a0,262 # 800086d8 <etext+0x6d8>
    800025da:	2f7030ef          	jal	800060d0 <printf>
  asm volatile("csrr %0, sepc" : "=r" (x) );
    800025de:	141025f3          	csrr	a1,sepc
  asm volatile("csrr %0, stval" : "=r" (x) );
    800025e2:	14302673          	csrr	a2,stval
    printf("            sepc=0x%lx stval=0x%lx\n", r_sepc(), r_stval());
    800025e6:	00006517          	auipc	a0,0x6
    800025ea:	12250513          	addi	a0,a0,290 # 80008708 <etext+0x708>
    800025ee:	2e3030ef          	jal	800060d0 <printf>
    setkilled(p);
    800025f2:	8526                	mv	a0,s1
    800025f4:	a7dff0ef          	jal	80002070 <setkilled>
    800025f8:	b75d                	j	8000259e <usertrap+0x76>
  yield(); // Always yield on timer interrupt from user
    800025fa:	837ff0ef          	jal	80001e30 <yield>
    800025fe:	bf5d                	j	800025b4 <usertrap+0x8c>

0000000080002600 <kerneltrap>:
{
    80002600:	7179                	addi	sp,sp,-48
    80002602:	f406                	sd	ra,40(sp)
    80002604:	f022                	sd	s0,32(sp)
    80002606:	ec26                	sd	s1,24(sp)
    80002608:	e84a                	sd	s2,16(sp)
    8000260a:	e44e                	sd	s3,8(sp)
    8000260c:	1800                	addi	s0,sp,48
  asm volatile("csrr %0, sepc" : "=r" (x) );
    8000260e:	14102973          	csrr	s2,sepc
  asm volatile("csrr %0, sstatus" : "=r" (x) );
    80002612:	100024f3          	csrr	s1,sstatus
  asm volatile("csrr %0, scause" : "=r" (x) );
    80002616:	142029f3          	csrr	s3,scause
  if((sstatus & SSTATUS_SPP) == 0)
    8000261a:	1004f793          	andi	a5,s1,256
    8000261e:	c795                	beqz	a5,8000264a <kerneltrap+0x4a>
  asm volatile("csrr %0, sstatus" : "=r" (x) );
    80002620:	100027f3          	csrr	a5,sstatus
  return (x & SSTATUS_SIE) != 0;
    80002624:	8b89                	andi	a5,a5,2
  if(intr_get() != 0)
    80002626:	eb85                	bnez	a5,80002656 <kerneltrap+0x56>
  if((which_dev = devintr()) == 0){
    80002628:	e8dff0ef          	jal	800024b4 <devintr>
    8000262c:	c91d                	beqz	a0,80002662 <kerneltrap+0x62>
  if(which_dev == 2 && myproc() != 0)
    8000262e:	4789                	li	a5,2
    80002630:	04f50a63          	beq	a0,a5,80002684 <kerneltrap+0x84>
  asm volatile("csrw sepc, %0" : : "r" (x));
    80002634:	14191073          	csrw	sepc,s2
  asm volatile("csrw sstatus, %0" : : "r" (x));
    80002638:	10049073          	csrw	sstatus,s1
}
    8000263c:	70a2                	ld	ra,40(sp)
    8000263e:	7402                	ld	s0,32(sp)
    80002640:	64e2                	ld	s1,24(sp)
    80002642:	6942                	ld	s2,16(sp)
    80002644:	69a2                	ld	s3,8(sp)
    80002646:	6145                	addi	sp,sp,48
    80002648:	8082                	ret
    panic("kerneltrap: not from supervisor mode");
    8000264a:	00006517          	auipc	a0,0x6
    8000264e:	0e650513          	addi	a0,a0,230 # 80008730 <etext+0x730>
    80002652:	551030ef          	jal	800063a2 <panic>
    panic("kerneltrap: interrupts enabled");
    80002656:	00006517          	auipc	a0,0x6
    8000265a:	10250513          	addi	a0,a0,258 # 80008758 <etext+0x758>
    8000265e:	545030ef          	jal	800063a2 <panic>
  asm volatile("csrr %0, sepc" : "=r" (x) );
    80002662:	14102673          	csrr	a2,sepc
  asm volatile("csrr %0, stval" : "=r" (x) );
    80002666:	143026f3          	csrr	a3,stval
    printf("scause=0x%lx sepc=0x%lx stval=0x%lx\n", scause, r_sepc(), r_stval());
    8000266a:	85ce                	mv	a1,s3
    8000266c:	00006517          	auipc	a0,0x6
    80002670:	10c50513          	addi	a0,a0,268 # 80008778 <etext+0x778>
    80002674:	25d030ef          	jal	800060d0 <printf>
    panic("kerneltrap");
    80002678:	00006517          	auipc	a0,0x6
    8000267c:	12850513          	addi	a0,a0,296 # 800087a0 <etext+0x7a0>
    80002680:	523030ef          	jal	800063a2 <panic>
  if(which_dev == 2 && myproc() != 0)
    80002684:	934ff0ef          	jal	800017b8 <myproc>
    80002688:	d555                	beqz	a0,80002634 <kerneltrap+0x34>
    yield();
    8000268a:	fa6ff0ef          	jal	80001e30 <yield>
    8000268e:	b75d                	j	80002634 <kerneltrap+0x34>

0000000080002690 <argraw>:
  return strlen(buf);
}

static uint64
argraw(int n)
{
    80002690:	1101                	addi	sp,sp,-32
    80002692:	ec06                	sd	ra,24(sp)
    80002694:	e822                	sd	s0,16(sp)
    80002696:	e426                	sd	s1,8(sp)
    80002698:	1000                	addi	s0,sp,32
    8000269a:	84aa                	mv	s1,a0
  struct proc *p = myproc();
    8000269c:	91cff0ef          	jal	800017b8 <myproc>
  switch (n) {
    800026a0:	4795                	li	a5,5
    800026a2:	0497e163          	bltu	a5,s1,800026e4 <argraw+0x54>
    800026a6:	048a                	slli	s1,s1,0x2
    800026a8:	00006717          	auipc	a4,0x6
    800026ac:	68070713          	addi	a4,a4,1664 # 80008d28 <states.0+0x30>
    800026b0:	94ba                	add	s1,s1,a4
    800026b2:	409c                	lw	a5,0(s1)
    800026b4:	97ba                	add	a5,a5,a4
    800026b6:	8782                	jr	a5
  case 0:
    return p->trapframe->a0;
    800026b8:	713c                	ld	a5,96(a0)
    800026ba:	7ba8                	ld	a0,112(a5)
  case 5:
    return p->trapframe->a5;
  }
  panic("argraw");
  return -1;
}
    800026bc:	60e2                	ld	ra,24(sp)
    800026be:	6442                	ld	s0,16(sp)
    800026c0:	64a2                	ld	s1,8(sp)
    800026c2:	6105                	addi	sp,sp,32
    800026c4:	8082                	ret
    return p->trapframe->a1;
    800026c6:	713c                	ld	a5,96(a0)
    800026c8:	7fa8                	ld	a0,120(a5)
    800026ca:	bfcd                	j	800026bc <argraw+0x2c>
    return p->trapframe->a2;
    800026cc:	713c                	ld	a5,96(a0)
    800026ce:	63c8                	ld	a0,128(a5)
    800026d0:	b7f5                	j	800026bc <argraw+0x2c>
    return p->trapframe->a3;
    800026d2:	713c                	ld	a5,96(a0)
    800026d4:	67c8                	ld	a0,136(a5)
    800026d6:	b7dd                	j	800026bc <argraw+0x2c>
    return p->trapframe->a4;
    800026d8:	713c                	ld	a5,96(a0)
    800026da:	6bc8                	ld	a0,144(a5)
    800026dc:	b7c5                	j	800026bc <argraw+0x2c>
    return p->trapframe->a5;
    800026de:	713c                	ld	a5,96(a0)
    800026e0:	6fc8                	ld	a0,152(a5)
    800026e2:	bfe9                	j	800026bc <argraw+0x2c>
  panic("argraw");
    800026e4:	00006517          	auipc	a0,0x6
    800026e8:	0cc50513          	addi	a0,a0,204 # 800087b0 <etext+0x7b0>
    800026ec:	4b7030ef          	jal	800063a2 <panic>

00000000800026f0 <fetchaddr>:
{
    800026f0:	1101                	addi	sp,sp,-32
    800026f2:	ec06                	sd	ra,24(sp)
    800026f4:	e822                	sd	s0,16(sp)
    800026f6:	e426                	sd	s1,8(sp)
    800026f8:	e04a                	sd	s2,0(sp)
    800026fa:	1000                	addi	s0,sp,32
    800026fc:	84aa                	mv	s1,a0
    800026fe:	892e                	mv	s2,a1
  struct proc *p = myproc();
    80002700:	8b8ff0ef          	jal	800017b8 <myproc>
  if(addr >= p->sz || addr+sizeof(uint64) > p->sz) // both tests needed, in case of overflow
    80002704:	693c                	ld	a5,80(a0)
    80002706:	02f4f663          	bgeu	s1,a5,80002732 <fetchaddr+0x42>
    8000270a:	00848713          	addi	a4,s1,8
    8000270e:	02e7e463          	bltu	a5,a4,80002736 <fetchaddr+0x46>
  if(copyin(p->pagetable, (char *)ip, addr, sizeof(*ip)) != 0)
    80002712:	46a1                	li	a3,8
    80002714:	8626                	mv	a2,s1
    80002716:	85ca                	mv	a1,s2
    80002718:	6d28                	ld	a0,88(a0)
    8000271a:	ae1fe0ef          	jal	800011fa <copyin>
    8000271e:	00a03533          	snez	a0,a0
    80002722:	40a00533          	neg	a0,a0
}
    80002726:	60e2                	ld	ra,24(sp)
    80002728:	6442                	ld	s0,16(sp)
    8000272a:	64a2                	ld	s1,8(sp)
    8000272c:	6902                	ld	s2,0(sp)
    8000272e:	6105                	addi	sp,sp,32
    80002730:	8082                	ret
    return -1;
    80002732:	557d                	li	a0,-1
    80002734:	bfcd                	j	80002726 <fetchaddr+0x36>
    80002736:	557d                	li	a0,-1
    80002738:	b7fd                	j	80002726 <fetchaddr+0x36>

000000008000273a <fetchstr>:
{
    8000273a:	7179                	addi	sp,sp,-48
    8000273c:	f406                	sd	ra,40(sp)
    8000273e:	f022                	sd	s0,32(sp)
    80002740:	ec26                	sd	s1,24(sp)
    80002742:	e84a                	sd	s2,16(sp)
    80002744:	e44e                	sd	s3,8(sp)
    80002746:	1800                	addi	s0,sp,48
    80002748:	892a                	mv	s2,a0
    8000274a:	84ae                	mv	s1,a1
    8000274c:	89b2                	mv	s3,a2
  struct proc *p = myproc();
    8000274e:	86aff0ef          	jal	800017b8 <myproc>
  if(copyinstr(p->pagetable, buf, addr, max) < 0)
    80002752:	86ce                	mv	a3,s3
    80002754:	864a                	mv	a2,s2
    80002756:	85a6                	mv	a1,s1
    80002758:	6d28                	ld	a0,88(a0)
    8000275a:	bfbfe0ef          	jal	80001354 <copyinstr>
    8000275e:	00054c63          	bltz	a0,80002776 <fetchstr+0x3c>
  return strlen(buf);
    80002762:	8526                	mv	a0,s1
    80002764:	ebbfd0ef          	jal	8000061e <strlen>
}
    80002768:	70a2                	ld	ra,40(sp)
    8000276a:	7402                	ld	s0,32(sp)
    8000276c:	64e2                	ld	s1,24(sp)
    8000276e:	6942                	ld	s2,16(sp)
    80002770:	69a2                	ld	s3,8(sp)
    80002772:	6145                	addi	sp,sp,48
    80002774:	8082                	ret
    return -1;
    80002776:	557d                	li	a0,-1
    80002778:	bfc5                	j	80002768 <fetchstr+0x2e>

000000008000277a <argint>:

// Fetch the nth 32-bit system call argument.
int
argint(int n, int *ip)
{
    8000277a:	1101                	addi	sp,sp,-32
    8000277c:	ec06                	sd	ra,24(sp)
    8000277e:	e822                	sd	s0,16(sp)
    80002780:	e426                	sd	s1,8(sp)
    80002782:	1000                	addi	s0,sp,32
    80002784:	84ae                	mv	s1,a1
  *ip = argraw(n);
    80002786:	f0bff0ef          	jal	80002690 <argraw>
    8000278a:	c088                	sw	a0,0(s1)

  return 0; // <--- 添加这行，明确返回 0 表示成功
}
    8000278c:	4501                	li	a0,0
    8000278e:	60e2                	ld	ra,24(sp)
    80002790:	6442                	ld	s0,16(sp)
    80002792:	64a2                	ld	s1,8(sp)
    80002794:	6105                	addi	sp,sp,32
    80002796:	8082                	ret

0000000080002798 <argaddr>:
// Retrieve an argument as a pointer.
// Doesn't check for legality, since
// copyin/copyout will do that.
int // <--- 修改返回类型为 int
argaddr(int n, uint64 *ip)
{
    80002798:	1101                	addi	sp,sp,-32
    8000279a:	ec06                	sd	ra,24(sp)
    8000279c:	e822                	sd	s0,16(sp)
    8000279e:	e426                	sd	s1,8(sp)
    800027a0:	1000                	addi	s0,sp,32
    800027a2:	84ae                	mv	s1,a1
  *ip = argraw(n);
    800027a4:	eedff0ef          	jal	80002690 <argraw>
    800027a8:	e088                	sd	a0,0(s1)
  // 那么 argaddr 自身可能无法检测到很多错误。
  // 但为了与 if (argaddr(...) < 0) 的模式兼容，它应该返回 0。
  // 如果 argraw 失败会 panic，那么这个返回值其实不太会被检查到失败路径。
  // 但如果 argraw 将来可能返回错误，或者为了接口一致性，返回 int 是好的。
  return 0; // 表示成功获取了原始值
}
    800027aa:	4501                	li	a0,0
    800027ac:	60e2                	ld	ra,24(sp)
    800027ae:	6442                	ld	s0,16(sp)
    800027b0:	64a2                	ld	s1,8(sp)
    800027b2:	6105                	addi	sp,sp,32
    800027b4:	8082                	ret

00000000800027b6 <argstr>:
// Fetch the nth word-sized system call argument as a null-terminated string.
// Copies into buf, at most max.
// Returns string length if OK (including nul), -1 if error.
int
argstr(int n, char *buf, int max)
{
    800027b6:	7179                	addi	sp,sp,-48
    800027b8:	f406                	sd	ra,40(sp)
    800027ba:	f022                	sd	s0,32(sp)
    800027bc:	ec26                	sd	s1,24(sp)
    800027be:	e84a                	sd	s2,16(sp)
    800027c0:	1800                	addi	s0,sp,48
    800027c2:	84ae                	mv	s1,a1
    800027c4:	8932                	mv	s2,a2
  uint64 addr;
  argaddr(n, &addr);
    800027c6:	fd840593          	addi	a1,s0,-40
    800027ca:	fcfff0ef          	jal	80002798 <argaddr>
  return fetchstr(addr, buf, max);
    800027ce:	864a                	mv	a2,s2
    800027d0:	85a6                	mv	a1,s1
    800027d2:	fd843503          	ld	a0,-40(s0)
